Archive member included because of file (symbol)

C:\Users\TeamUiS\AppData\Local\arduino15\packages\arduino\hardware\sam\1.6.11\variants\arduino_due_x/libsam_sam3x8e_gcc_rel.a(pio.o)
                              C:\Users\TeamUiS\AppData\Local\Temp\VMBuilds\Circulation\arduino_due_x_dbg\Release\variant\variant.cpp.o (PIO_Configure)
C:\Users\TeamUiS\AppData\Local\arduino15\packages\arduino\hardware\sam\1.6.11\variants\arduino_due_x/libsam_sam3x8e_gcc_rel.a(pmc.o)
                              C:\Users\TeamUiS\AppData\Local\Temp\VMBuilds\Circulation\arduino_due_x_dbg\Release\variant\variant.cpp.o (pmc_enable_periph_clk)
C:\Users\TeamUiS\AppData\Local\arduino15\packages\arduino\hardware\sam\1.6.11\variants\arduino_due_x/libsam_sam3x8e_gcc_rel.a(system_sam3xa.o)
                              C:\Users\TeamUiS\AppData\Local\Temp\VMBuilds\Circulation\arduino_due_x_dbg\Release\variant\variant.cpp.o (SystemInit)
C:\Users\TeamUiS\AppData\Local\arduino15\packages\arduino\hardware\sam\1.6.11\variants\arduino_due_x/libsam_sam3x8e_gcc_rel.a(startup_sam3xa.o)
                              (Reset_Handler)
C:\Users\TeamUiS\AppData\Local\arduino15\packages\arduino\hardware\sam\1.6.11\variants\arduino_due_x/libsam_sam3x8e_gcc_rel.a(adc.o)
                              C:\Users\TeamUiS\AppData\Local\Temp\VMBuilds\Circulation\arduino_due_x_dbg\Release\variant\variant.cpp.o (adc_init)
C:\Users\TeamUiS\AppData\Local\arduino15\packages\arduino\hardware\sam\1.6.11\variants\arduino_due_x/libsam_sam3x8e_gcc_rel.a(uotghs.o)
                              C:\Users\TeamUiS\AppData\Local\arduino15\packages\arduino\hardware\sam\1.6.11\variants\arduino_due_x/libsam_sam3x8e_gcc_rel.a(startup_sam3xa.o) (UOTGHS_Handler)
C:\Users\TeamUiS\AppData\Local\Temp\VMBuilds\Circulation\arduino_due_x_dbg\Release/core.a(cortex_handlers.c.o)
                              C:\Users\TeamUiS\AppData\Local\arduino15\packages\arduino\hardware\sam\1.6.11\variants\arduino_due_x/libsam_sam3x8e_gcc_rel.a(startup_sam3xa.o) (NMI_Handler)
C:\Users\TeamUiS\AppData\Local\Temp\VMBuilds\Circulation\arduino_due_x_dbg\Release/core.a(hooks.c.o)
                              C:\Users\TeamUiS\AppData\Local\Temp\VMBuilds\Circulation\arduino_due_x_dbg\Release/core.a(cortex_handlers.c.o) (sysTickHook)
C:\Users\TeamUiS\AppData\Local\Temp\VMBuilds\Circulation\arduino_due_x_dbg\Release/core.a(syscalls_sam3.c.o)
                              (_sbrk)
C:\Users\TeamUiS\AppData\Local\Temp\VMBuilds\Circulation\arduino_due_x_dbg\Release/core.a(wiring.c.o)
                              C:\Users\TeamUiS\AppData\Local\Temp\VMBuilds\Circulation\arduino_due_x_dbg\Release\Circulation.cpp.o (millis)
C:\Users\TeamUiS\AppData\Local\Temp\VMBuilds\Circulation\arduino_due_x_dbg\Release/core.a(wiring_analog.c.o)
                              C:\Users\TeamUiS\AppData\Local\Temp\VMBuilds\Circulation\arduino_due_x_dbg\Release\Circulation.cpp.o (analogRead)
C:\Users\TeamUiS\AppData\Local\Temp\VMBuilds\Circulation\arduino_due_x_dbg\Release/core.a(wiring_digital.c.o)
                              C:\Users\TeamUiS\AppData\Local\Temp\VMBuilds\Circulation\arduino_due_x_dbg\Release\Circulation.cpp.o (pinMode)
C:\Users\TeamUiS\AppData\Local\Temp\VMBuilds\Circulation\arduino_due_x_dbg\Release/core.a(main.cpp.o)
                              c:/users/teamuis/appdata/local/arduino15/packages/arduino/tools/arm-none-eabi-gcc/4.8.3-2014q1/bin/../lib/gcc/arm-none-eabi/4.8.3/../../../../arm-none-eabi/lib/armv7-m/crt0.o (main)
C:\Users\TeamUiS\AppData\Local\Temp\VMBuilds\Circulation\arduino_due_x_dbg\Release/core.a(Print.cpp.o)
                              C:\Users\TeamUiS\AppData\Local\Temp\VMBuilds\Circulation\arduino_due_x_dbg\Release\Circulation.cpp.o (Print::print(char const*))
C:\Users\TeamUiS\AppData\Local\Temp\VMBuilds\Circulation\arduino_due_x_dbg\Release/core.a(Reset.cpp.o)
                              C:\Users\TeamUiS\AppData\Local\Temp\VMBuilds\Circulation\arduino_due_x_dbg\Release/core.a(cortex_handlers.c.o) (tickReset)
C:\Users\TeamUiS\AppData\Local\Temp\VMBuilds\Circulation\arduino_due_x_dbg\Release/core.a(RingBuffer.cpp.o)
                              C:\Users\TeamUiS\AppData\Local\Temp\VMBuilds\Circulation\arduino_due_x_dbg\Release\variant\variant.cpp.o (RingBuffer::RingBuffer())
C:\Users\TeamUiS\AppData\Local\Temp\VMBuilds\Circulation\arduino_due_x_dbg\Release/core.a(UARTClass.cpp.o)
                              C:\Users\TeamUiS\AppData\Local\Temp\VMBuilds\Circulation\arduino_due_x_dbg\Release\variant\variant.cpp.o (UARTClass::available())
C:\Users\TeamUiS\AppData\Local\Temp\VMBuilds\Circulation\arduino_due_x_dbg\Release/core.a(USARTClass.cpp.o)
                              C:\Users\TeamUiS\AppData\Local\Temp\VMBuilds\Circulation\arduino_due_x_dbg\Release\variant\variant.cpp.o (USARTClass::USARTClass(Usart*, IRQn, unsigned long, RingBuffer*, RingBuffer*))
C:\Users\TeamUiS\AppData\Local\Temp\VMBuilds\Circulation\arduino_due_x_dbg\Release/core.a(watchdog.cpp.o)
                              C:\Users\TeamUiS\AppData\Local\Temp\VMBuilds\Circulation\arduino_due_x_dbg\Release/core.a(main.cpp.o) (watchdogSetup())
C:\Users\TeamUiS\AppData\Local\Temp\VMBuilds\Circulation\arduino_due_x_dbg\Release/core.a(USBCore.cpp.o)
                              C:\Users\TeamUiS\AppData\Local\Temp\VMBuilds\Circulation\arduino_due_x_dbg\Release/core.a(main.cpp.o) (USBDevice_::attach())
C:\Users\TeamUiS\AppData\Local\Temp\VMBuilds\Circulation\arduino_due_x_dbg\Release/core.a(abi.cpp.o)
                              C:\Users\TeamUiS\AppData\Local\Temp\VMBuilds\Circulation\arduino_due_x_dbg\Release/core.a(Print.cpp.o) (__cxa_pure_virtual)
C:\Users\TeamUiS\AppData\Local\Temp\VMBuilds\Circulation\arduino_due_x_dbg\Release/core.a(CDC.cpp.o)
                              C:\Users\TeamUiS\AppData\Local\Temp\VMBuilds\Circulation\arduino_due_x_dbg\Release/core.a(USBCore.cpp.o) (Serial_::accept())
C:\Users\TeamUiS\AppData\Local\Temp\VMBuilds\Circulation\arduino_due_x_dbg\Release/core.a(PluggableUSB.cpp.o)
                              C:\Users\TeamUiS\AppData\Local\Temp\VMBuilds\Circulation\arduino_due_x_dbg\Release/core.a(USBCore.cpp.o) (PluggableUSB_::getInterface(unsigned char*))
C:\Users\TeamUiS\AppData\Local\arduino15\packages\arduino\hardware\sam\1.6.11\variants\arduino_due_x/libsam_sam3x8e_gcc_rel.a(pwmc.o)
                              C:\Users\TeamUiS\AppData\Local\Temp\VMBuilds\Circulation\arduino_due_x_dbg\Release/core.a(wiring_analog.c.o) (PWMC_ConfigureChannel)
C:\Users\TeamUiS\AppData\Local\arduino15\packages\arduino\hardware\sam\1.6.11\variants\arduino_due_x/libsam_sam3x8e_gcc_rel.a(tc.o)
                              C:\Users\TeamUiS\AppData\Local\Temp\VMBuilds\Circulation\arduino_due_x_dbg\Release/core.a(wiring_analog.c.o) (TC_Configure)
C:\Users\TeamUiS\AppData\Local\arduino15\packages\arduino\hardware\sam\1.6.11\variants\arduino_due_x/libsam_sam3x8e_gcc_rel.a(timetick.o)
                              C:\Users\TeamUiS\AppData\Local\Temp\VMBuilds\Circulation\arduino_due_x_dbg\Release/core.a(cortex_handlers.c.o) (TimeTick_Increment)
C:\Users\TeamUiS\AppData\Local\arduino15\packages\arduino\hardware\sam\1.6.11\variants\arduino_due_x/libsam_sam3x8e_gcc_rel.a(wdt.o)
                              C:\Users\TeamUiS\AppData\Local\Temp\VMBuilds\Circulation\arduino_due_x_dbg\Release/core.a(watchdog.cpp.o) (WDT_Enable)
C:\Users\TeamUiS\AppData\Local\arduino15\packages\arduino\hardware\sam\1.6.11\variants\arduino_due_x/libsam_sam3x8e_gcc_rel.a(interrupt_sam_nvic.o)
                              C:\Users\TeamUiS\AppData\Local\Temp\VMBuilds\Circulation\arduino_due_x_dbg\Release/core.a(USBCore.cpp.o) (g_interrupt_enabled)
C:\Users\TeamUiS\AppData\Local\arduino15\packages\arduino\hardware\sam\1.6.11\variants\arduino_due_x/libsam_sam3x8e_gcc_rel.a(uotghs_device.o)
                              C:\Users\TeamUiS\AppData\Local\Temp\VMBuilds\Circulation\arduino_due_x_dbg\Release/core.a(USBCore.cpp.o) (UDD_SetStack)
C:\Users\TeamUiS\AppData\Local\arduino15\packages\arduino\hardware\sam\1.6.11\variants\arduino_due_x/libsam_sam3x8e_gcc_rel.a(dacc.o)
                              C:\Users\TeamUiS\AppData\Local\Temp\VMBuilds\Circulation\arduino_due_x_dbg\Release/core.a(wiring_analog.c.o) (dacc_reset)
c:/users/teamuis/appdata/local/arduino15/packages/arduino/tools/arm-none-eabi-gcc/4.8.3-2014q1/bin/../lib/gcc/arm-none-eabi/4.8.3/../../../../arm-none-eabi/lib/armv7-m\libm.a(lib_a-s_fpclassify.o)
                              C:\Users\TeamUiS\AppData\Local\Temp\VMBuilds\Circulation\arduino_due_x_dbg\Release/core.a(Print.cpp.o) (__fpclassifyd)
c:/users/teamuis/appdata/local/arduino15/packages/arduino/tools/arm-none-eabi-gcc/4.8.3-2014q1/bin/../lib/gcc/arm-none-eabi/4.8.3/armv7-m\libgcc.a(_arm_addsubdf3.o)
                              C:\Users\TeamUiS\AppData\Local\Temp\VMBuilds\Circulation\arduino_due_x_dbg\Release\Circulation.cpp.o (__aeabi_dsub)
c:/users/teamuis/appdata/local/arduino15/packages/arduino/tools/arm-none-eabi-gcc/4.8.3-2014q1/bin/../lib/gcc/arm-none-eabi/4.8.3/armv7-m\libgcc.a(_arm_muldivdf3.o)
                              C:\Users\TeamUiS\AppData\Local\Temp\VMBuilds\Circulation\arduino_due_x_dbg\Release\Circulation.cpp.o (__aeabi_dmul)
c:/users/teamuis/appdata/local/arduino15/packages/arduino/tools/arm-none-eabi-gcc/4.8.3-2014q1/bin/../lib/gcc/arm-none-eabi/4.8.3/armv7-m\libgcc.a(_arm_cmpdf2.o)
                              C:\Users\TeamUiS\AppData\Local\Temp\VMBuilds\Circulation\arduino_due_x_dbg\Release/core.a(Print.cpp.o) (__aeabi_dcmplt)
c:/users/teamuis/appdata/local/arduino15/packages/arduino/tools/arm-none-eabi-gcc/4.8.3-2014q1/bin/../lib/gcc/arm-none-eabi/4.8.3/armv7-m\libgcc.a(_arm_fixunsdfsi.o)
                              C:\Users\TeamUiS\AppData\Local\Temp\VMBuilds\Circulation\arduino_due_x_dbg\Release/core.a(Print.cpp.o) (__aeabi_d2uiz)
c:/users/teamuis/appdata/local/arduino15/packages/arduino/tools/arm-none-eabi-gcc/4.8.3-2014q1/bin/../lib/gcc/arm-none-eabi/4.8.3/armv7-m\libgcc.a(_arm_truncdfsf2.o)
                              C:\Users\TeamUiS\AppData\Local\Temp\VMBuilds\Circulation\arduino_due_x_dbg\Release\Circulation.cpp.o (__aeabi_d2f)
c:/users/teamuis/appdata/local/arduino15/packages/arduino/tools/arm-none-eabi-gcc/4.8.3-2014q1/bin/../lib/gcc/arm-none-eabi/4.8.3/armv7-m\libgcc.a(_arm_addsubsf3.o)
                              C:\Users\TeamUiS\AppData\Local\Temp\VMBuilds\Circulation\arduino_due_x_dbg\Release\Circulation.cpp.o (__aeabi_fsub)
c:/users/teamuis/appdata/local/arduino15/packages/arduino/tools/arm-none-eabi-gcc/4.8.3-2014q1/bin/../lib/gcc/arm-none-eabi/4.8.3/armv7-m\libgcc.a(_arm_muldivsf3.o)
                              C:\Users\TeamUiS\AppData\Local\Temp\VMBuilds\Circulation\arduino_due_x_dbg\Release\Circulation.cpp.o (__aeabi_fmul)
c:/users/teamuis/appdata/local/arduino15/packages/arduino/tools/arm-none-eabi-gcc/4.8.3-2014q1/bin/../lib/gcc/arm-none-eabi/4.8.3/armv7-m\libgcc.a(_arm_cmpsf2.o)
                              C:\Users\TeamUiS\AppData\Local\Temp\VMBuilds\Circulation\arduino_due_x_dbg\Release\Circulation.cpp.o (__aeabi_fcmplt)
c:/users/teamuis/appdata/local/arduino15/packages/arduino/tools/arm-none-eabi-gcc/4.8.3-2014q1/bin/../lib/gcc/arm-none-eabi/4.8.3/../../../../arm-none-eabi/lib/armv7-m\libg.a(lib_a-assert.o)
                              C:\Users\TeamUiS\AppData\Local\arduino15\packages\arduino\hardware\sam\1.6.11\variants\arduino_due_x/libsam_sam3x8e_gcc_rel.a(pwmc.o) (__assert_func)
c:/users/teamuis/appdata/local/arduino15/packages/arduino/tools/arm-none-eabi-gcc/4.8.3-2014q1/bin/../lib/gcc/arm-none-eabi/4.8.3/../../../../arm-none-eabi/lib/armv7-m\libg.a(lib_a-exit.o)
                              c:/users/teamuis/appdata/local/arduino15/packages/arduino/tools/arm-none-eabi-gcc/4.8.3-2014q1/bin/../lib/gcc/arm-none-eabi/4.8.3/../../../../arm-none-eabi/lib/armv7-m/crt0.o (exit)
c:/users/teamuis/appdata/local/arduino15/packages/arduino/tools/arm-none-eabi-gcc/4.8.3-2014q1/bin/../lib/gcc/arm-none-eabi/4.8.3/../../../../arm-none-eabi/lib/armv7-m\libg.a(lib_a-fiprintf.o)
                              c:/users/teamuis/appdata/local/arduino15/packages/arduino/tools/arm-none-eabi-gcc/4.8.3-2014q1/bin/../lib/gcc/arm-none-eabi/4.8.3/../../../../arm-none-eabi/lib/armv7-m\libg.a(lib_a-assert.o) (fiprintf)
c:/users/teamuis/appdata/local/arduino15/packages/arduino/tools/arm-none-eabi-gcc/4.8.3-2014q1/bin/../lib/gcc/arm-none-eabi/4.8.3/../../../../arm-none-eabi/lib/armv7-m\libg.a(lib_a-impure.o)
                              c:/users/teamuis/appdata/local/arduino15/packages/arduino/tools/arm-none-eabi-gcc/4.8.3-2014q1/bin/../lib/gcc/arm-none-eabi/4.8.3/../../../../arm-none-eabi/lib/armv7-m\libg.a(lib_a-exit.o) (_global_impure_ptr)
c:/users/teamuis/appdata/local/arduino15/packages/arduino/tools/arm-none-eabi-gcc/4.8.3-2014q1/bin/../lib/gcc/arm-none-eabi/4.8.3/../../../../arm-none-eabi/lib/armv7-m\libg.a(lib_a-init.o)
                              c:/users/teamuis/appdata/local/arduino15/packages/arduino/tools/arm-none-eabi-gcc/4.8.3-2014q1/bin/../lib/gcc/arm-none-eabi/4.8.3/../../../../arm-none-eabi/lib/armv7-m/crt0.o (__libc_init_array)
c:/users/teamuis/appdata/local/arduino15/packages/arduino/tools/arm-none-eabi-gcc/4.8.3-2014q1/bin/../lib/gcc/arm-none-eabi/4.8.3/../../../../arm-none-eabi/lib/armv7-m\libg.a(lib_a-iprintf.o)
                              C:\Users\TeamUiS\AppData\Local\Temp\VMBuilds\Circulation\arduino_due_x_dbg\Release/core.a(syscalls_sam3.c.o) (iprintf)
c:/users/teamuis/appdata/local/arduino15/packages/arduino/tools/arm-none-eabi-gcc/4.8.3-2014q1/bin/../lib/gcc/arm-none-eabi/4.8.3/../../../../arm-none-eabi/lib/armv7-m\libg.a(lib_a-memset.o)
                              c:/users/teamuis/appdata/local/arduino15/packages/arduino/tools/arm-none-eabi-gcc/4.8.3-2014q1/bin/../lib/gcc/arm-none-eabi/4.8.3/../../../../arm-none-eabi/lib/armv7-m/crt0.o (memset)
c:/users/teamuis/appdata/local/arduino15/packages/arduino/tools/arm-none-eabi-gcc/4.8.3-2014q1/bin/../lib/gcc/arm-none-eabi/4.8.3/../../../../arm-none-eabi/lib/armv7-m\libg.a(lib_a-strlen.o)
                              C:\Users\TeamUiS\AppData\Local\Temp\VMBuilds\Circulation\arduino_due_x_dbg\Release/core.a(Print.cpp.o) (strlen)
c:/users/teamuis/appdata/local/arduino15/packages/arduino/tools/arm-none-eabi-gcc/4.8.3-2014q1/bin/../lib/gcc/arm-none-eabi/4.8.3/../../../../arm-none-eabi/lib/armv7-m\libg.a(lib_a-syskill.o)
                              (kill)
c:/users/teamuis/appdata/local/arduino15/packages/arduino/tools/arm-none-eabi-gcc/4.8.3-2014q1/bin/../lib/gcc/arm-none-eabi/4.8.3/../../../../arm-none-eabi/lib/armv7-m\libg.a(lib_a-vfiprintf.o)
                              c:/users/teamuis/appdata/local/arduino15/packages/arduino/tools/arm-none-eabi-gcc/4.8.3-2014q1/bin/../lib/gcc/arm-none-eabi/4.8.3/../../../../arm-none-eabi/lib/armv7-m\libg.a(lib_a-fiprintf.o) (_vfiprintf_r)
c:/users/teamuis/appdata/local/arduino15/packages/arduino/tools/arm-none-eabi-gcc/4.8.3-2014q1/bin/../lib/gcc/arm-none-eabi/4.8.3/../../../../arm-none-eabi/lib/armv7-m\libg.a(lib_a-wsetup.o)
                              c:/users/teamuis/appdata/local/arduino15/packages/arduino/tools/arm-none-eabi-gcc/4.8.3-2014q1/bin/../lib/gcc/arm-none-eabi/4.8.3/../../../../arm-none-eabi/lib/armv7-m\libg.a(lib_a-vfiprintf.o) (__swsetup_r)
c:/users/teamuis/appdata/local/arduino15/packages/arduino/tools/arm-none-eabi-gcc/4.8.3-2014q1/bin/../lib/gcc/arm-none-eabi/4.8.3/../../../../arm-none-eabi/lib/armv7-m\libg.a(lib_a-__call_atexit.o)
                              c:/users/teamuis/appdata/local/arduino15/packages/arduino/tools/arm-none-eabi-gcc/4.8.3-2014q1/bin/../lib/gcc/arm-none-eabi/4.8.3/../../../../arm-none-eabi/lib/armv7-m\libg.a(lib_a-exit.o) (__call_exitprocs)
c:/users/teamuis/appdata/local/arduino15/packages/arduino/tools/arm-none-eabi-gcc/4.8.3-2014q1/bin/../lib/gcc/arm-none-eabi/4.8.3/../../../../arm-none-eabi/lib/armv7-m\libg.a(lib_a-abort.o)
                              c:/users/teamuis/appdata/local/arduino15/packages/arduino/tools/arm-none-eabi-gcc/4.8.3-2014q1/bin/../lib/gcc/arm-none-eabi/4.8.3/../../../../arm-none-eabi/lib/armv7-m\libg.a(lib_a-assert.o) (abort)
c:/users/teamuis/appdata/local/arduino15/packages/arduino/tools/arm-none-eabi-gcc/4.8.3-2014q1/bin/../lib/gcc/arm-none-eabi/4.8.3/../../../../arm-none-eabi/lib/armv7-m\libg.a(lib_a-atexit.o)
                              c:/users/teamuis/appdata/local/arduino15/packages/arduino/tools/arm-none-eabi-gcc/4.8.3-2014q1/bin/../lib/gcc/arm-none-eabi/4.8.3/../../../../arm-none-eabi/lib/armv7-m\libg.a(lib_a-__call_atexit.o) (atexit)
c:/users/teamuis/appdata/local/arduino15/packages/arduino/tools/arm-none-eabi-gcc/4.8.3-2014q1/bin/../lib/gcc/arm-none-eabi/4.8.3/../../../../arm-none-eabi/lib/armv7-m\libg.a(lib_a-fflush.o)
                              c:/users/teamuis/appdata/local/arduino15/packages/arduino/tools/arm-none-eabi-gcc/4.8.3-2014q1/bin/../lib/gcc/arm-none-eabi/4.8.3/../../../../arm-none-eabi/lib/armv7-m\libg.a(lib_a-vfiprintf.o) (_fflush_r)
c:/users/teamuis/appdata/local/arduino15/packages/arduino/tools/arm-none-eabi-gcc/4.8.3-2014q1/bin/../lib/gcc/arm-none-eabi/4.8.3/../../../../arm-none-eabi/lib/armv7-m\libg.a(lib_a-findfp.o)
                              c:/users/teamuis/appdata/local/arduino15/packages/arduino/tools/arm-none-eabi-gcc/4.8.3-2014q1/bin/../lib/gcc/arm-none-eabi/4.8.3/../../../../arm-none-eabi/lib/armv7-m\libg.a(lib_a-vfiprintf.o) (__sinit)
c:/users/teamuis/appdata/local/arduino15/packages/arduino/tools/arm-none-eabi-gcc/4.8.3-2014q1/bin/../lib/gcc/arm-none-eabi/4.8.3/../../../../arm-none-eabi/lib/armv7-m\libg.a(lib_a-fini.o)
                              c:/users/teamuis/appdata/local/arduino15/packages/arduino/tools/arm-none-eabi-gcc/4.8.3-2014q1/bin/../lib/gcc/arm-none-eabi/4.8.3/../../../../arm-none-eabi/lib/armv7-m\libg.a(lib_a-__call_atexit.o) (__libc_fini_array)
c:/users/teamuis/appdata/local/arduino15/packages/arduino/tools/arm-none-eabi-gcc/4.8.3-2014q1/bin/../lib/gcc/arm-none-eabi/4.8.3/../../../../arm-none-eabi/lib/armv7-m\libg.a(lib_a-fputwc.o)
                              c:/users/teamuis/appdata/local/arduino15/packages/arduino/tools/arm-none-eabi-gcc/4.8.3-2014q1/bin/../lib/gcc/arm-none-eabi/4.8.3/../../../../arm-none-eabi/lib/armv7-m\libg.a(lib_a-vfiprintf.o) (_fputwc_r)
c:/users/teamuis/appdata/local/arduino15/packages/arduino/tools/arm-none-eabi-gcc/4.8.3-2014q1/bin/../lib/gcc/arm-none-eabi/4.8.3/../../../../arm-none-eabi/lib/armv7-m\libg.a(lib_a-freer.o)
                              c:/users/teamuis/appdata/local/arduino15/packages/arduino/tools/arm-none-eabi-gcc/4.8.3-2014q1/bin/../lib/gcc/arm-none-eabi/4.8.3/../../../../arm-none-eabi/lib/armv7-m\libg.a(lib_a-wsetup.o) (_free_r)
c:/users/teamuis/appdata/local/arduino15/packages/arduino/tools/arm-none-eabi-gcc/4.8.3-2014q1/bin/../lib/gcc/arm-none-eabi/4.8.3/../../../../arm-none-eabi/lib/armv7-m\libg.a(lib_a-fvwrite.o)
                              c:/users/teamuis/appdata/local/arduino15/packages/arduino/tools/arm-none-eabi-gcc/4.8.3-2014q1/bin/../lib/gcc/arm-none-eabi/4.8.3/../../../../arm-none-eabi/lib/armv7-m\libg.a(lib_a-vfiprintf.o) (__sfvwrite_r)
c:/users/teamuis/appdata/local/arduino15/packages/arduino/tools/arm-none-eabi-gcc/4.8.3-2014q1/bin/../lib/gcc/arm-none-eabi/4.8.3/../../../../arm-none-eabi/lib/armv7-m\libg.a(lib_a-fwalk.o)
                              c:/users/teamuis/appdata/local/arduino15/packages/arduino/tools/arm-none-eabi-gcc/4.8.3-2014q1/bin/../lib/gcc/arm-none-eabi/4.8.3/../../../../arm-none-eabi/lib/armv7-m\libg.a(lib_a-findfp.o) (_fwalk)
c:/users/teamuis/appdata/local/arduino15/packages/arduino/tools/arm-none-eabi-gcc/4.8.3-2014q1/bin/../lib/gcc/arm-none-eabi/4.8.3/../../../../arm-none-eabi/lib/armv7-m\libg.a(lib_a-locale.o)
                              c:/users/teamuis/appdata/local/arduino15/packages/arduino/tools/arm-none-eabi-gcc/4.8.3-2014q1/bin/../lib/gcc/arm-none-eabi/4.8.3/../../../../arm-none-eabi/lib/armv7-m\libg.a(lib_a-fputwc.o) (__locale_mb_cur_max)
c:/users/teamuis/appdata/local/arduino15/packages/arduino/tools/arm-none-eabi-gcc/4.8.3-2014q1/bin/../lib/gcc/arm-none-eabi/4.8.3/../../../../arm-none-eabi/lib/armv7-m\libg.a(lib_a-makebuf.o)
                              c:/users/teamuis/appdata/local/arduino15/packages/arduino/tools/arm-none-eabi-gcc/4.8.3-2014q1/bin/../lib/gcc/arm-none-eabi/4.8.3/../../../../arm-none-eabi/lib/armv7-m\libg.a(lib_a-wsetup.o) (__smakebuf_r)
c:/users/teamuis/appdata/local/arduino15/packages/arduino/tools/arm-none-eabi-gcc/4.8.3-2014q1/bin/../lib/gcc/arm-none-eabi/4.8.3/../../../../arm-none-eabi/lib/armv7-m\libg.a(lib_a-mallocr.o)
                              c:/users/teamuis/appdata/local/arduino15/packages/arduino/tools/arm-none-eabi-gcc/4.8.3-2014q1/bin/../lib/gcc/arm-none-eabi/4.8.3/../../../../arm-none-eabi/lib/armv7-m\libg.a(lib_a-findfp.o) (_malloc_r)
c:/users/teamuis/appdata/local/arduino15/packages/arduino/tools/arm-none-eabi-gcc/4.8.3-2014q1/bin/../lib/gcc/arm-none-eabi/4.8.3/../../../../arm-none-eabi/lib/armv7-m\libg.a(lib_a-memchr-stub.o)
                              c:/users/teamuis/appdata/local/arduino15/packages/arduino/tools/arm-none-eabi-gcc/4.8.3-2014q1/bin/../lib/gcc/arm-none-eabi/4.8.3/../../../../arm-none-eabi/lib/armv7-m\libg.a(lib_a-vfiprintf.o) (memchr)
c:/users/teamuis/appdata/local/arduino15/packages/arduino/tools/arm-none-eabi-gcc/4.8.3-2014q1/bin/../lib/gcc/arm-none-eabi/4.8.3/../../../../arm-none-eabi/lib/armv7-m\libg.a(lib_a-memcpy.o)
                              c:/users/teamuis/appdata/local/arduino15/packages/arduino/tools/arm-none-eabi-gcc/4.8.3-2014q1/bin/../lib/gcc/arm-none-eabi/4.8.3/../../../../arm-none-eabi/lib/armv7-m\libg.a(lib_a-fvwrite.o) (memcpy)
c:/users/teamuis/appdata/local/arduino15/packages/arduino/tools/arm-none-eabi-gcc/4.8.3-2014q1/bin/../lib/gcc/arm-none-eabi/4.8.3/../../../../arm-none-eabi/lib/armv7-m\libg.a(lib_a-memmove.o)
                              c:/users/teamuis/appdata/local/arduino15/packages/arduino/tools/arm-none-eabi-gcc/4.8.3-2014q1/bin/../lib/gcc/arm-none-eabi/4.8.3/../../../../arm-none-eabi/lib/armv7-m\libg.a(lib_a-fvwrite.o) (memmove)
c:/users/teamuis/appdata/local/arduino15/packages/arduino/tools/arm-none-eabi-gcc/4.8.3-2014q1/bin/../lib/gcc/arm-none-eabi/4.8.3/../../../../arm-none-eabi/lib/armv7-m\libg.a(lib_a-mlock.o)
                              c:/users/teamuis/appdata/local/arduino15/packages/arduino/tools/arm-none-eabi-gcc/4.8.3-2014q1/bin/../lib/gcc/arm-none-eabi/4.8.3/../../../../arm-none-eabi/lib/armv7-m\libg.a(lib_a-freer.o) (__malloc_lock)
c:/users/teamuis/appdata/local/arduino15/packages/arduino/tools/arm-none-eabi-gcc/4.8.3-2014q1/bin/../lib/gcc/arm-none-eabi/4.8.3/../../../../arm-none-eabi/lib/armv7-m\libg.a(lib_a-reallocr.o)
                              c:/users/teamuis/appdata/local/arduino15/packages/arduino/tools/arm-none-eabi-gcc/4.8.3-2014q1/bin/../lib/gcc/arm-none-eabi/4.8.3/../../../../arm-none-eabi/lib/armv7-m\libg.a(lib_a-fvwrite.o) (_realloc_r)
c:/users/teamuis/appdata/local/arduino15/packages/arduino/tools/arm-none-eabi-gcc/4.8.3-2014q1/bin/../lib/gcc/arm-none-eabi/4.8.3/../../../../arm-none-eabi/lib/armv7-m\libg.a(lib_a-sbrkr.o)
                              c:/users/teamuis/appdata/local/arduino15/packages/arduino/tools/arm-none-eabi-gcc/4.8.3-2014q1/bin/../lib/gcc/arm-none-eabi/4.8.3/../../../../arm-none-eabi/lib/armv7-m\libg.a(lib_a-freer.o) (_sbrk_r)
c:/users/teamuis/appdata/local/arduino15/packages/arduino/tools/arm-none-eabi-gcc/4.8.3-2014q1/bin/../lib/gcc/arm-none-eabi/4.8.3/../../../../arm-none-eabi/lib/armv7-m\libg.a(lib_a-signal.o)
                              c:/users/teamuis/appdata/local/arduino15/packages/arduino/tools/arm-none-eabi-gcc/4.8.3-2014q1/bin/../lib/gcc/arm-none-eabi/4.8.3/../../../../arm-none-eabi/lib/armv7-m\libg.a(lib_a-abort.o) (raise)
c:/users/teamuis/appdata/local/arduino15/packages/arduino/tools/arm-none-eabi-gcc/4.8.3-2014q1/bin/../lib/gcc/arm-none-eabi/4.8.3/../../../../arm-none-eabi/lib/armv7-m\libg.a(lib_a-signalr.o)
                              c:/users/teamuis/appdata/local/arduino15/packages/arduino/tools/arm-none-eabi-gcc/4.8.3-2014q1/bin/../lib/gcc/arm-none-eabi/4.8.3/../../../../arm-none-eabi/lib/armv7-m\libg.a(lib_a-syskill.o) (_kill_r)
c:/users/teamuis/appdata/local/arduino15/packages/arduino/tools/arm-none-eabi-gcc/4.8.3-2014q1/bin/../lib/gcc/arm-none-eabi/4.8.3/../../../../arm-none-eabi/lib/armv7-m\libg.a(lib_a-stdio.o)
                              c:/users/teamuis/appdata/local/arduino15/packages/arduino/tools/arm-none-eabi-gcc/4.8.3-2014q1/bin/../lib/gcc/arm-none-eabi/4.8.3/../../../../arm-none-eabi/lib/armv7-m\libg.a(lib_a-findfp.o) (__sread)
c:/users/teamuis/appdata/local/arduino15/packages/arduino/tools/arm-none-eabi-gcc/4.8.3-2014q1/bin/../lib/gcc/arm-none-eabi/4.8.3/../../../../arm-none-eabi/lib/armv7-m\libg.a(lib_a-strcmp.o)
                              c:/users/teamuis/appdata/local/arduino15/packages/arduino/tools/arm-none-eabi-gcc/4.8.3-2014q1/bin/../lib/gcc/arm-none-eabi/4.8.3/../../../../arm-none-eabi/lib/armv7-m\libg.a(lib_a-locale.o) (strcmp)
c:/users/teamuis/appdata/local/arduino15/packages/arduino/tools/arm-none-eabi-gcc/4.8.3-2014q1/bin/../lib/gcc/arm-none-eabi/4.8.3/../../../../arm-none-eabi/lib/armv7-m\libg.a(lib_a-wbuf.o)
                              c:/users/teamuis/appdata/local/arduino15/packages/arduino/tools/arm-none-eabi-gcc/4.8.3-2014q1/bin/../lib/gcc/arm-none-eabi/4.8.3/../../../../arm-none-eabi/lib/armv7-m\libg.a(lib_a-fputwc.o) (__swbuf_r)
c:/users/teamuis/appdata/local/arduino15/packages/arduino/tools/arm-none-eabi-gcc/4.8.3-2014q1/bin/../lib/gcc/arm-none-eabi/4.8.3/../../../../arm-none-eabi/lib/armv7-m\libg.a(lib_a-wcrtomb.o)
                              c:/users/teamuis/appdata/local/arduino15/packages/arduino/tools/arm-none-eabi-gcc/4.8.3-2014q1/bin/../lib/gcc/arm-none-eabi/4.8.3/../../../../arm-none-eabi/lib/armv7-m\libg.a(lib_a-fputwc.o) (_wcrtomb_r)
c:/users/teamuis/appdata/local/arduino15/packages/arduino/tools/arm-none-eabi-gcc/4.8.3-2014q1/bin/../lib/gcc/arm-none-eabi/4.8.3/../../../../arm-none-eabi/lib/armv7-m\libg.a(lib_a-wctomb_r.o)
                              c:/users/teamuis/appdata/local/arduino15/packages/arduino/tools/arm-none-eabi-gcc/4.8.3-2014q1/bin/../lib/gcc/arm-none-eabi/4.8.3/../../../../arm-none-eabi/lib/armv7-m\libg.a(lib_a-wcrtomb.o) (__wctomb)
c:/users/teamuis/appdata/local/arduino15/packages/arduino/tools/arm-none-eabi-gcc/4.8.3-2014q1/bin/../lib/gcc/arm-none-eabi/4.8.3/../../../../arm-none-eabi/lib/armv7-m\libg.a(lib_a-writer.o)
                              c:/users/teamuis/appdata/local/arduino15/packages/arduino/tools/arm-none-eabi-gcc/4.8.3-2014q1/bin/../lib/gcc/arm-none-eabi/4.8.3/../../../../arm-none-eabi/lib/armv7-m\libg.a(lib_a-stdio.o) (_write_r)
c:/users/teamuis/appdata/local/arduino15/packages/arduino/tools/arm-none-eabi-gcc/4.8.3-2014q1/bin/../lib/gcc/arm-none-eabi/4.8.3/../../../../arm-none-eabi/lib/armv7-m\libg.a(lib_a-__atexit.o)
                              c:/users/teamuis/appdata/local/arduino15/packages/arduino/tools/arm-none-eabi-gcc/4.8.3-2014q1/bin/../lib/gcc/arm-none-eabi/4.8.3/../../../../arm-none-eabi/lib/armv7-m\libg.a(lib_a-atexit.o) (__register_exitproc)
c:/users/teamuis/appdata/local/arduino15/packages/arduino/tools/arm-none-eabi-gcc/4.8.3-2014q1/bin/../lib/gcc/arm-none-eabi/4.8.3/../../../../arm-none-eabi/lib/armv7-m\libg.a(lib_a-closer.o)
                              c:/users/teamuis/appdata/local/arduino15/packages/arduino/tools/arm-none-eabi-gcc/4.8.3-2014q1/bin/../lib/gcc/arm-none-eabi/4.8.3/../../../../arm-none-eabi/lib/armv7-m\libg.a(lib_a-stdio.o) (_close_r)
c:/users/teamuis/appdata/local/arduino15/packages/arduino/tools/arm-none-eabi-gcc/4.8.3-2014q1/bin/../lib/gcc/arm-none-eabi/4.8.3/../../../../arm-none-eabi/lib/armv7-m\libg.a(lib_a-fclose.o)
                              c:/users/teamuis/appdata/local/arduino15/packages/arduino/tools/arm-none-eabi-gcc/4.8.3-2014q1/bin/../lib/gcc/arm-none-eabi/4.8.3/../../../../arm-none-eabi/lib/armv7-m\libg.a(lib_a-findfp.o) (fclose)
c:/users/teamuis/appdata/local/arduino15/packages/arduino/tools/arm-none-eabi-gcc/4.8.3-2014q1/bin/../lib/gcc/arm-none-eabi/4.8.3/../../../../arm-none-eabi/lib/armv7-m\libg.a(lib_a-fstatr.o)
                              c:/users/teamuis/appdata/local/arduino15/packages/arduino/tools/arm-none-eabi-gcc/4.8.3-2014q1/bin/../lib/gcc/arm-none-eabi/4.8.3/../../../../arm-none-eabi/lib/armv7-m\libg.a(lib_a-makebuf.o) (_fstat_r)
c:/users/teamuis/appdata/local/arduino15/packages/arduino/tools/arm-none-eabi-gcc/4.8.3-2014q1/bin/../lib/gcc/arm-none-eabi/4.8.3/../../../../arm-none-eabi/lib/armv7-m\libg.a(lib_a-isattyr.o)
                              c:/users/teamuis/appdata/local/arduino15/packages/arduino/tools/arm-none-eabi-gcc/4.8.3-2014q1/bin/../lib/gcc/arm-none-eabi/4.8.3/../../../../arm-none-eabi/lib/armv7-m\libg.a(lib_a-makebuf.o) (_isatty_r)
c:/users/teamuis/appdata/local/arduino15/packages/arduino/tools/arm-none-eabi-gcc/4.8.3-2014q1/bin/../lib/gcc/arm-none-eabi/4.8.3/../../../../arm-none-eabi/lib/armv7-m\libg.a(lib_a-lseekr.o)
                              c:/users/teamuis/appdata/local/arduino15/packages/arduino/tools/arm-none-eabi-gcc/4.8.3-2014q1/bin/../lib/gcc/arm-none-eabi/4.8.3/../../../../arm-none-eabi/lib/armv7-m\libg.a(lib_a-stdio.o) (_lseek_r)
c:/users/teamuis/appdata/local/arduino15/packages/arduino/tools/arm-none-eabi-gcc/4.8.3-2014q1/bin/../lib/gcc/arm-none-eabi/4.8.3/../../../../arm-none-eabi/lib/armv7-m\libg.a(lib_a-readr.o)
                              c:/users/teamuis/appdata/local/arduino15/packages/arduino/tools/arm-none-eabi-gcc/4.8.3-2014q1/bin/../lib/gcc/arm-none-eabi/4.8.3/../../../../arm-none-eabi/lib/armv7-m\libg.a(lib_a-stdio.o) (_read_r)
c:/users/teamuis/appdata/local/arduino15/packages/arduino/tools/arm-none-eabi-gcc/4.8.3-2014q1/bin/../lib/gcc/arm-none-eabi/4.8.3/../../../../arm-none-eabi/lib/armv7-m\libg.a(lib_a-reent.o)
                              c:/users/teamuis/appdata/local/arduino15/packages/arduino/tools/arm-none-eabi-gcc/4.8.3-2014q1/bin/../lib/gcc/arm-none-eabi/4.8.3/../../../../arm-none-eabi/lib/armv7-m\libg.a(lib_a-sbrkr.o) (errno)
c:/users/teamuis/appdata/local/arduino15/packages/arduino/tools/arm-none-eabi-gcc/4.8.3-2014q1/bin/../lib/gcc/arm-none-eabi/4.8.3/armv7-m\libgcc.a(_aeabi_uldivmod.o)
                              c:/users/teamuis/appdata/local/arduino15/packages/arduino/tools/arm-none-eabi-gcc/4.8.3-2014q1/bin/../lib/gcc/arm-none-eabi/4.8.3/../../../../arm-none-eabi/lib/armv7-m\libg.a(lib_a-vfiprintf.o) (__aeabi_uldivmod)
c:/users/teamuis/appdata/local/arduino15/packages/arduino/tools/arm-none-eabi-gcc/4.8.3-2014q1/bin/../lib/gcc/arm-none-eabi/4.8.3/armv7-m\libgcc.a(bpabi.o)
                              c:/users/teamuis/appdata/local/arduino15/packages/arduino/tools/arm-none-eabi-gcc/4.8.3-2014q1/bin/../lib/gcc/arm-none-eabi/4.8.3/armv7-m\libgcc.a(_aeabi_uldivmod.o) (__gnu_uldivmod_helper)
c:/users/teamuis/appdata/local/arduino15/packages/arduino/tools/arm-none-eabi-gcc/4.8.3-2014q1/bin/../lib/gcc/arm-none-eabi/4.8.3/armv7-m\libgcc.a(_dvmd_tls.o)
                              c:/users/teamuis/appdata/local/arduino15/packages/arduino/tools/arm-none-eabi-gcc/4.8.3-2014q1/bin/../lib/gcc/arm-none-eabi/4.8.3/armv7-m\libgcc.a(_aeabi_uldivmod.o) (__aeabi_ldiv0)
c:/users/teamuis/appdata/local/arduino15/packages/arduino/tools/arm-none-eabi-gcc/4.8.3-2014q1/bin/../lib/gcc/arm-none-eabi/4.8.3/armv7-m\libgcc.a(_divdi3.o)
                              c:/users/teamuis/appdata/local/arduino15/packages/arduino/tools/arm-none-eabi-gcc/4.8.3-2014q1/bin/../lib/gcc/arm-none-eabi/4.8.3/armv7-m\libgcc.a(bpabi.o) (__divdi3)
c:/users/teamuis/appdata/local/arduino15/packages/arduino/tools/arm-none-eabi-gcc/4.8.3-2014q1/bin/../lib/gcc/arm-none-eabi/4.8.3/armv7-m\libgcc.a(_udivdi3.o)
                              c:/users/teamuis/appdata/local/arduino15/packages/arduino/tools/arm-none-eabi-gcc/4.8.3-2014q1/bin/../lib/gcc/arm-none-eabi/4.8.3/armv7-m\libgcc.a(bpabi.o) (__udivdi3)

Allocating common symbols
Common symbol       size              file

errno               0x4               c:/users/teamuis/appdata/local/arduino15/packages/arduino/tools/arm-none-eabi-gcc/4.8.3-2014q1/bin/../lib/gcc/arm-none-eabi/4.8.3/../../../../arm-none-eabi/lib/armv7-m\libg.a(lib_a-reent.o)

Discarded input sections

 .text          0x00000000        0x0 c:/users/teamuis/appdata/local/arduino15/packages/arduino/tools/arm-none-eabi-gcc/4.8.3-2014q1/bin/../lib/gcc/arm-none-eabi/4.8.3/armv7-m/crti.o
 .data          0x00000000        0x0 c:/users/teamuis/appdata/local/arduino15/packages/arduino/tools/arm-none-eabi-gcc/4.8.3-2014q1/bin/../lib/gcc/arm-none-eabi/4.8.3/armv7-m/crti.o
 .bss           0x00000000        0x0 c:/users/teamuis/appdata/local/arduino15/packages/arduino/tools/arm-none-eabi-gcc/4.8.3-2014q1/bin/../lib/gcc/arm-none-eabi/4.8.3/armv7-m/crti.o
 .data          0x00000000        0x4 c:/users/teamuis/appdata/local/arduino15/packages/arduino/tools/arm-none-eabi-gcc/4.8.3-2014q1/bin/../lib/gcc/arm-none-eabi/4.8.3/armv7-m/crtbegin.o
 .text          0x00000000       0x74 c:/users/teamuis/appdata/local/arduino15/packages/arduino/tools/arm-none-eabi-gcc/4.8.3-2014q1/bin/../lib/gcc/arm-none-eabi/4.8.3/../../../../arm-none-eabi/lib/armv7-m/crt0.o
 .data          0x00000000        0x0 c:/users/teamuis/appdata/local/arduino15/packages/arduino/tools/arm-none-eabi-gcc/4.8.3-2014q1/bin/../lib/gcc/arm-none-eabi/4.8.3/../../../../arm-none-eabi/lib/armv7-m/crt0.o
 .bss           0x00000000        0x0 c:/users/teamuis/appdata/local/arduino15/packages/arduino/tools/arm-none-eabi-gcc/4.8.3-2014q1/bin/../lib/gcc/arm-none-eabi/4.8.3/../../../../arm-none-eabi/lib/armv7-m/crt0.o
 .ARM.extab     0x00000000        0x0 c:/users/teamuis/appdata/local/arduino15/packages/arduino/tools/arm-none-eabi-gcc/4.8.3-2014q1/bin/../lib/gcc/arm-none-eabi/4.8.3/../../../../arm-none-eabi/lib/armv7-m/crt0.o
 .ARM.exidx     0x00000000        0x8 c:/users/teamuis/appdata/local/arduino15/packages/arduino/tools/arm-none-eabi-gcc/4.8.3-2014q1/bin/../lib/gcc/arm-none-eabi/4.8.3/../../../../arm-none-eabi/lib/armv7-m/crt0.o
 .ARM.attributes
                0x00000000       0x1b c:/users/teamuis/appdata/local/arduino15/packages/arduino/tools/arm-none-eabi-gcc/4.8.3-2014q1/bin/../lib/gcc/arm-none-eabi/4.8.3/../../../../arm-none-eabi/lib/armv7-m/crt0.o
 .text          0x00000000        0x0 C:\Users\TeamUiS\AppData\Local\Temp\VMBuilds\Circulation\arduino_due_x_dbg\Release\Circulation.cpp.o
 .data          0x00000000        0x0 C:\Users\TeamUiS\AppData\Local\Temp\VMBuilds\Circulation\arduino_due_x_dbg\Release\Circulation.cpp.o
 .bss           0x00000000        0x0 C:\Users\TeamUiS\AppData\Local\Temp\VMBuilds\Circulation\arduino_due_x_dbg\Release\Circulation.cpp.o
 .bss.reading   0x00000000        0x4 C:\Users\TeamUiS\AppData\Local\Temp\VMBuilds\Circulation\arduino_due_x_dbg\Release\Circulation.cpp.o
 .bss.previousTime
                0x00000000        0x4 C:\Users\TeamUiS\AppData\Local\Temp\VMBuilds\Circulation\arduino_due_x_dbg\Release\Circulation.cpp.o
 .bss.elapsed   0x00000000        0x4 C:\Users\TeamUiS\AppData\Local\Temp\VMBuilds\Circulation\arduino_due_x_dbg\Release\Circulation.cpp.o
 .text          0x00000000        0x0 C:\Users\TeamUiS\AppData\Local\Temp\VMBuilds\Circulation\arduino_due_x_dbg\Release\variant\variant.cpp.o
 .data          0x00000000        0x0 C:\Users\TeamUiS\AppData\Local\Temp\VMBuilds\Circulation\arduino_due_x_dbg\Release\variant\variant.cpp.o
 .bss           0x00000000        0x0 C:\Users\TeamUiS\AppData\Local\Temp\VMBuilds\Circulation\arduino_due_x_dbg\Release\variant\variant.cpp.o
 .text          0x00000000        0x0 C:\Users\TeamUiS\AppData\Local\arduino15\packages\arduino\hardware\sam\1.6.11\variants\arduino_due_x/libsam_sam3x8e_gcc_rel.a(pio.o)
 .data          0x00000000        0x0 C:\Users\TeamUiS\AppData\Local\arduino15\packages\arduino\hardware\sam\1.6.11\variants\arduino_due_x/libsam_sam3x8e_gcc_rel.a(pio.o)
 .bss           0x00000000        0x0 C:\Users\TeamUiS\AppData\Local\arduino15\packages\arduino\hardware\sam\1.6.11\variants\arduino_due_x/libsam_sam3x8e_gcc_rel.a(pio.o)
 .text.PIO_DisableInterrupt
                0x00000000        0x4 C:\Users\TeamUiS\AppData\Local\arduino15\packages\arduino\hardware\sam\1.6.11\variants\arduino_due_x/libsam_sam3x8e_gcc_rel.a(pio.o)
 .text.PIO_SetDebounceFilter
                0x00000000       0x1a C:\Users\TeamUiS\AppData\Local\arduino15\packages\arduino\hardware\sam\1.6.11\variants\arduino_due_x/libsam_sam3x8e_gcc_rel.a(pio.o)
 .text.PIO_Set  0x00000000        0x4 C:\Users\TeamUiS\AppData\Local\arduino15\packages\arduino\hardware\sam\1.6.11\variants\arduino_due_x/libsam_sam3x8e_gcc_rel.a(pio.o)
 .text.PIO_Get  0x00000000       0x14 C:\Users\TeamUiS\AppData\Local\arduino15\packages\arduino\hardware\sam\1.6.11\variants\arduino_due_x/libsam_sam3x8e_gcc_rel.a(pio.o)
 .text.PIO_Clear
                0x00000000        0x4 C:\Users\TeamUiS\AppData\Local\arduino15\packages\arduino\hardware\sam\1.6.11\variants\arduino_due_x/libsam_sam3x8e_gcc_rel.a(pio.o)
 .text          0x00000000        0x0 C:\Users\TeamUiS\AppData\Local\arduino15\packages\arduino\hardware\sam\1.6.11\variants\arduino_due_x/libsam_sam3x8e_gcc_rel.a(pmc.o)
 .data          0x00000000        0x0 C:\Users\TeamUiS\AppData\Local\arduino15\packages\arduino\hardware\sam\1.6.11\variants\arduino_due_x/libsam_sam3x8e_gcc_rel.a(pmc.o)
 .bss           0x00000000        0x0 C:\Users\TeamUiS\AppData\Local\arduino15\packages\arduino\hardware\sam\1.6.11\variants\arduino_due_x/libsam_sam3x8e_gcc_rel.a(pmc.o)
 .text.pmc_mck_set_prescaler
                0x00000000       0x18 C:\Users\TeamUiS\AppData\Local\arduino15\packages\arduino\hardware\sam\1.6.11\variants\arduino_due_x/libsam_sam3x8e_gcc_rel.a(pmc.o)
 .text.pmc_mck_set_source
                0x00000000       0x18 C:\Users\TeamUiS\AppData\Local\arduino15\packages\arduino\hardware\sam\1.6.11\variants\arduino_due_x/libsam_sam3x8e_gcc_rel.a(pmc.o)
 .text.pmc_switch_mck_to_sclk
                0x00000000       0x44 C:\Users\TeamUiS\AppData\Local\arduino15\packages\arduino\hardware\sam\1.6.11\variants\arduino_due_x/libsam_sam3x8e_gcc_rel.a(pmc.o)
 .text.pmc_switch_mck_to_mainck
                0x00000000       0x48 C:\Users\TeamUiS\AppData\Local\arduino15\packages\arduino\hardware\sam\1.6.11\variants\arduino_due_x/libsam_sam3x8e_gcc_rel.a(pmc.o)
 .text.pmc_switch_mck_to_pllack
                0x00000000       0x44 C:\Users\TeamUiS\AppData\Local\arduino15\packages\arduino\hardware\sam\1.6.11\variants\arduino_due_x/libsam_sam3x8e_gcc_rel.a(pmc.o)
 .text.pmc_switch_mck_to_upllck
                0x00000000       0x40 C:\Users\TeamUiS\AppData\Local\arduino15\packages\arduino\hardware\sam\1.6.11\variants\arduino_due_x/libsam_sam3x8e_gcc_rel.a(pmc.o)
 .text.pmc_switch_sclk_to_32kxtal
                0x00000000       0x24 C:\Users\TeamUiS\AppData\Local\arduino15\packages\arduino\hardware\sam\1.6.11\variants\arduino_due_x/libsam_sam3x8e_gcc_rel.a(pmc.o)
 .text.pmc_osc_is_ready_32kxtal
                0x00000000       0x1c C:\Users\TeamUiS\AppData\Local\arduino15\packages\arduino\hardware\sam\1.6.11\variants\arduino_due_x/libsam_sam3x8e_gcc_rel.a(pmc.o)
 .text.pmc_switch_mainck_to_fastrc
                0x00000000       0x6c C:\Users\TeamUiS\AppData\Local\arduino15\packages\arduino\hardware\sam\1.6.11\variants\arduino_due_x/libsam_sam3x8e_gcc_rel.a(pmc.o)
 .text.pmc_osc_enable_fastrc
                0x00000000       0x18 C:\Users\TeamUiS\AppData\Local\arduino15\packages\arduino\hardware\sam\1.6.11\variants\arduino_due_x/libsam_sam3x8e_gcc_rel.a(pmc.o)
 .text.pmc_osc_disable_fastrc
                0x00000000       0x18 C:\Users\TeamUiS\AppData\Local\arduino15\packages\arduino\hardware\sam\1.6.11\variants\arduino_due_x/libsam_sam3x8e_gcc_rel.a(pmc.o)
 .text.pmc_switch_mainck_to_xtal
                0x00000000       0x48 C:\Users\TeamUiS\AppData\Local\arduino15\packages\arduino\hardware\sam\1.6.11\variants\arduino_due_x/libsam_sam3x8e_gcc_rel.a(pmc.o)
 .text.pmc_osc_disable_xtal
                0x00000000       0x20 C:\Users\TeamUiS\AppData\Local\arduino15\packages\arduino\hardware\sam\1.6.11\variants\arduino_due_x/libsam_sam3x8e_gcc_rel.a(pmc.o)
 .text.pmc_osc_is_ready_mainck
                0x00000000       0x10 C:\Users\TeamUiS\AppData\Local\arduino15\packages\arduino\hardware\sam\1.6.11\variants\arduino_due_x/libsam_sam3x8e_gcc_rel.a(pmc.o)
 .text.pmc_enable_pllack
                0x00000000       0x34 C:\Users\TeamUiS\AppData\Local\arduino15\packages\arduino\hardware\sam\1.6.11\variants\arduino_due_x/libsam_sam3x8e_gcc_rel.a(pmc.o)
 .text.pmc_disable_pllack
                0x00000000       0x10 C:\Users\TeamUiS\AppData\Local\arduino15\packages\arduino\hardware\sam\1.6.11\variants\arduino_due_x/libsam_sam3x8e_gcc_rel.a(pmc.o)
 .text.pmc_is_locked_pllack
                0x00000000       0x10 C:\Users\TeamUiS\AppData\Local\arduino15\packages\arduino\hardware\sam\1.6.11\variants\arduino_due_x/libsam_sam3x8e_gcc_rel.a(pmc.o)
 .text.pmc_disable_upll_clock
                0x00000000       0x10 C:\Users\TeamUiS\AppData\Local\arduino15\packages\arduino\hardware\sam\1.6.11\variants\arduino_due_x/libsam_sam3x8e_gcc_rel.a(pmc.o)
 .text.pmc_is_locked_upll
                0x00000000       0x10 C:\Users\TeamUiS\AppData\Local\arduino15\packages\arduino\hardware\sam\1.6.11\variants\arduino_due_x/libsam_sam3x8e_gcc_rel.a(pmc.o)
 .text.pmc_enable_all_periph_clk
                0x00000000       0x2c C:\Users\TeamUiS\AppData\Local\arduino15\packages\arduino\hardware\sam\1.6.11\variants\arduino_due_x/libsam_sam3x8e_gcc_rel.a(pmc.o)
 .text.pmc_disable_all_periph_clk
                0x00000000       0x28 C:\Users\TeamUiS\AppData\Local\arduino15\packages\arduino\hardware\sam\1.6.11\variants\arduino_due_x/libsam_sam3x8e_gcc_rel.a(pmc.o)
 .text.pmc_is_periph_clk_enabled
                0x00000000       0x34 C:\Users\TeamUiS\AppData\Local\arduino15\packages\arduino\hardware\sam\1.6.11\variants\arduino_due_x/libsam_sam3x8e_gcc_rel.a(pmc.o)
 .text.pmc_pck_set_prescaler
                0x00000000       0x2c C:\Users\TeamUiS\AppData\Local\arduino15\packages\arduino\hardware\sam\1.6.11\variants\arduino_due_x/libsam_sam3x8e_gcc_rel.a(pmc.o)
 .text.pmc_pck_set_source
                0x00000000       0x2c C:\Users\TeamUiS\AppData\Local\arduino15\packages\arduino\hardware\sam\1.6.11\variants\arduino_due_x/libsam_sam3x8e_gcc_rel.a(pmc.o)
 .text.pmc_switch_pck_to_sclk
                0x00000000       0x2c C:\Users\TeamUiS\AppData\Local\arduino15\packages\arduino\hardware\sam\1.6.11\variants\arduino_due_x/libsam_sam3x8e_gcc_rel.a(pmc.o)
 .text.pmc_switch_pck_to_mainck
                0x00000000       0x30 C:\Users\TeamUiS\AppData\Local\arduino15\packages\arduino\hardware\sam\1.6.11\variants\arduino_due_x/libsam_sam3x8e_gcc_rel.a(pmc.o)
 .text.pmc_switch_pck_to_pllack
                0x00000000       0x30 C:\Users\TeamUiS\AppData\Local\arduino15\packages\arduino\hardware\sam\1.6.11\variants\arduino_due_x/libsam_sam3x8e_gcc_rel.a(pmc.o)
 .text.pmc_switch_pck_to_upllck
                0x00000000       0x30 C:\Users\TeamUiS\AppData\Local\arduino15\packages\arduino\hardware\sam\1.6.11\variants\arduino_due_x/libsam_sam3x8e_gcc_rel.a(pmc.o)
 .text.pmc_enable_pck
                0x00000000       0x14 C:\Users\TeamUiS\AppData\Local\arduino15\packages\arduino\hardware\sam\1.6.11\variants\arduino_due_x/libsam_sam3x8e_gcc_rel.a(pmc.o)
 .text.pmc_disable_pck
                0x00000000       0x14 C:\Users\TeamUiS\AppData\Local\arduino15\packages\arduino\hardware\sam\1.6.11\variants\arduino_due_x/libsam_sam3x8e_gcc_rel.a(pmc.o)
 .text.pmc_enable_all_pck
                0x00000000       0x10 C:\Users\TeamUiS\AppData\Local\arduino15\packages\arduino\hardware\sam\1.6.11\variants\arduino_due_x/libsam_sam3x8e_gcc_rel.a(pmc.o)
 .text.pmc_disable_all_pck
                0x00000000       0x10 C:\Users\TeamUiS\AppData\Local\arduino15\packages\arduino\hardware\sam\1.6.11\variants\arduino_due_x/libsam_sam3x8e_gcc_rel.a(pmc.o)
 .text.pmc_is_pck_enabled
                0x00000000       0x1c C:\Users\TeamUiS\AppData\Local\arduino15\packages\arduino\hardware\sam\1.6.11\variants\arduino_due_x/libsam_sam3x8e_gcc_rel.a(pmc.o)
 .text.pmc_switch_udpck_to_pllack
                0x00000000       0x10 C:\Users\TeamUiS\AppData\Local\arduino15\packages\arduino\hardware\sam\1.6.11\variants\arduino_due_x/libsam_sam3x8e_gcc_rel.a(pmc.o)
 .text.pmc_disable_udpck
                0x00000000        0xc C:\Users\TeamUiS\AppData\Local\arduino15\packages\arduino\hardware\sam\1.6.11\variants\arduino_due_x/libsam_sam3x8e_gcc_rel.a(pmc.o)
 .text.pmc_enable_interrupt
                0x00000000        0xc C:\Users\TeamUiS\AppData\Local\arduino15\packages\arduino\hardware\sam\1.6.11\variants\arduino_due_x/libsam_sam3x8e_gcc_rel.a(pmc.o)
 .text.pmc_disable_interrupt
                0x00000000        0xc C:\Users\TeamUiS\AppData\Local\arduino15\packages\arduino\hardware\sam\1.6.11\variants\arduino_due_x/libsam_sam3x8e_gcc_rel.a(pmc.o)
 .text.pmc_get_interrupt_mask
                0x00000000        0xc C:\Users\TeamUiS\AppData\Local\arduino15\packages\arduino\hardware\sam\1.6.11\variants\arduino_due_x/libsam_sam3x8e_gcc_rel.a(pmc.o)
 .text.pmc_get_status
                0x00000000        0xc C:\Users\TeamUiS\AppData\Local\arduino15\packages\arduino\hardware\sam\1.6.11\variants\arduino_due_x/libsam_sam3x8e_gcc_rel.a(pmc.o)
 .text.pmc_set_fast_startup_input
                0x00000000       0x14 C:\Users\TeamUiS\AppData\Local\arduino15\packages\arduino\hardware\sam\1.6.11\variants\arduino_due_x/libsam_sam3x8e_gcc_rel.a(pmc.o)
 .text.pmc_clr_fast_startup_input
                0x00000000       0x14 C:\Users\TeamUiS\AppData\Local\arduino15\packages\arduino\hardware\sam\1.6.11\variants\arduino_due_x/libsam_sam3x8e_gcc_rel.a(pmc.o)
 .text.pmc_enable_sleepmode
                0x00000000       0x28 C:\Users\TeamUiS\AppData\Local\arduino15\packages\arduino\hardware\sam\1.6.11\variants\arduino_due_x/libsam_sam3x8e_gcc_rel.a(pmc.o)
 .text.pmc_enable_waitmode
                0x00000000       0x34 C:\Users\TeamUiS\AppData\Local\arduino15\packages\arduino\hardware\sam\1.6.11\variants\arduino_due_x/libsam_sam3x8e_gcc_rel.a(pmc.o)
 .text.pmc_enable_backupmode
                0x00000000       0x14 C:\Users\TeamUiS\AppData\Local\arduino15\packages\arduino\hardware\sam\1.6.11\variants\arduino_due_x/libsam_sam3x8e_gcc_rel.a(pmc.o)
 .text.pmc_set_writeprotect
                0x00000000       0x1c C:\Users\TeamUiS\AppData\Local\arduino15\packages\arduino\hardware\sam\1.6.11\variants\arduino_due_x/libsam_sam3x8e_gcc_rel.a(pmc.o)
 .text.pmc_get_writeprotect_status
                0x00000000       0x10 C:\Users\TeamUiS\AppData\Local\arduino15\packages\arduino\hardware\sam\1.6.11\variants\arduino_due_x/libsam_sam3x8e_gcc_rel.a(pmc.o)
 .text          0x00000000        0x0 C:\Users\TeamUiS\AppData\Local\arduino15\packages\arduino\hardware\sam\1.6.11\variants\arduino_due_x/libsam_sam3x8e_gcc_rel.a(system_sam3xa.o)
 .data          0x00000000        0x0 C:\Users\TeamUiS\AppData\Local\arduino15\packages\arduino\hardware\sam\1.6.11\variants\arduino_due_x/libsam_sam3x8e_gcc_rel.a(system_sam3xa.o)
 .bss           0x00000000        0x0 C:\Users\TeamUiS\AppData\Local\arduino15\packages\arduino\hardware\sam\1.6.11\variants\arduino_due_x/libsam_sam3x8e_gcc_rel.a(system_sam3xa.o)
 .text.SystemCoreClockUpdate
                0x00000000       0xd0 C:\Users\TeamUiS\AppData\Local\arduino15\packages\arduino\hardware\sam\1.6.11\variants\arduino_due_x/libsam_sam3x8e_gcc_rel.a(system_sam3xa.o)
 .text.system_init_flash
                0x00000000       0x54 C:\Users\TeamUiS\AppData\Local\arduino15\packages\arduino\hardware\sam\1.6.11\variants\arduino_due_x/libsam_sam3x8e_gcc_rel.a(system_sam3xa.o)
 .text          0x00000000        0x0 C:\Users\TeamUiS\AppData\Local\arduino15\packages\arduino\hardware\sam\1.6.11\variants\arduino_due_x/libsam_sam3x8e_gcc_rel.a(startup_sam3xa.o)
 .data          0x00000000        0x0 C:\Users\TeamUiS\AppData\Local\arduino15\packages\arduino\hardware\sam\1.6.11\variants\arduino_due_x/libsam_sam3x8e_gcc_rel.a(startup_sam3xa.o)
 .bss           0x00000000        0x0 C:\Users\TeamUiS\AppData\Local\arduino15\packages\arduino\hardware\sam\1.6.11\variants\arduino_due_x/libsam_sam3x8e_gcc_rel.a(startup_sam3xa.o)
 .text          0x00000000        0x0 C:\Users\TeamUiS\AppData\Local\arduino15\packages\arduino\hardware\sam\1.6.11\variants\arduino_due_x/libsam_sam3x8e_gcc_rel.a(adc.o)
 .data          0x00000000        0x0 C:\Users\TeamUiS\AppData\Local\arduino15\packages\arduino\hardware\sam\1.6.11\variants\arduino_due_x/libsam_sam3x8e_gcc_rel.a(adc.o)
 .bss           0x00000000        0x0 C:\Users\TeamUiS\AppData\Local\arduino15\packages\arduino\hardware\sam\1.6.11\variants\arduino_due_x/libsam_sam3x8e_gcc_rel.a(adc.o)
 .text.adc_set_resolution
                0x00000000        0xe C:\Users\TeamUiS\AppData\Local\arduino15\packages\arduino\hardware\sam\1.6.11\variants\arduino_due_x/libsam_sam3x8e_gcc_rel.a(adc.o)
 .text.adc_configure_power_save
                0x00000000       0x16 C:\Users\TeamUiS\AppData\Local\arduino15\packages\arduino\hardware\sam\1.6.11\variants\arduino_due_x/libsam_sam3x8e_gcc_rel.a(adc.o)
 .text.adc_configure_sequence
                0x00000000       0x5a C:\Users\TeamUiS\AppData\Local\arduino15\packages\arduino\hardware\sam\1.6.11\variants\arduino_due_x/libsam_sam3x8e_gcc_rel.a(adc.o)
 .text.adc_enable_anch
                0x00000000        0xa C:\Users\TeamUiS\AppData\Local\arduino15\packages\arduino\hardware\sam\1.6.11\variants\arduino_due_x/libsam_sam3x8e_gcc_rel.a(adc.o)
 .text.adc_disable_anch
                0x00000000        0xa C:\Users\TeamUiS\AppData\Local\arduino15\packages\arduino\hardware\sam\1.6.11\variants\arduino_due_x/libsam_sam3x8e_gcc_rel.a(adc.o)
 .text.adc_stop
                0x00000000        0x6 C:\Users\TeamUiS\AppData\Local\arduino15\packages\arduino\hardware\sam\1.6.11\variants\arduino_due_x/libsam_sam3x8e_gcc_rel.a(adc.o)
 .text.adc_enable_all_channel
                0x00000000        0x8 C:\Users\TeamUiS\AppData\Local\arduino15\packages\arduino\hardware\sam\1.6.11\variants\arduino_due_x/libsam_sam3x8e_gcc_rel.a(adc.o)
 .text.adc_get_channel_value
                0x00000000        0xe C:\Users\TeamUiS\AppData\Local\arduino15\packages\arduino\hardware\sam\1.6.11\variants\arduino_due_x/libsam_sam3x8e_gcc_rel.a(adc.o)
 .text.adc_enable_tag
                0x00000000        0xa C:\Users\TeamUiS\AppData\Local\arduino15\packages\arduino\hardware\sam\1.6.11\variants\arduino_due_x/libsam_sam3x8e_gcc_rel.a(adc.o)
 .text.adc_disable_tag
                0x00000000        0xa C:\Users\TeamUiS\AppData\Local\arduino15\packages\arduino\hardware\sam\1.6.11\variants\arduino_due_x/libsam_sam3x8e_gcc_rel.a(adc.o)
 .text.adc_get_tag
                0x00000000        0x8 C:\Users\TeamUiS\AppData\Local\arduino15\packages\arduino\hardware\sam\1.6.11\variants\arduino_due_x/libsam_sam3x8e_gcc_rel.a(adc.o)
 .text.adc_start_sequencer
                0x00000000        0xa C:\Users\TeamUiS\AppData\Local\arduino15\packages\arduino\hardware\sam\1.6.11\variants\arduino_due_x/libsam_sam3x8e_gcc_rel.a(adc.o)
 .text.adc_stop_sequencer
                0x00000000        0xa C:\Users\TeamUiS\AppData\Local\arduino15\packages\arduino\hardware\sam\1.6.11\variants\arduino_due_x/libsam_sam3x8e_gcc_rel.a(adc.o)
 .text.adc_set_comparison_mode
                0x00000000       0x14 C:\Users\TeamUiS\AppData\Local\arduino15\packages\arduino\hardware\sam\1.6.11\variants\arduino_due_x/libsam_sam3x8e_gcc_rel.a(adc.o)
 .text.adc_get_comparison_mode
                0x00000000        0x8 C:\Users\TeamUiS\AppData\Local\arduino15\packages\arduino\hardware\sam\1.6.11\variants\arduino_due_x/libsam_sam3x8e_gcc_rel.a(adc.o)
 .text.adc_set_comparison_window
                0x00000000       0x18 C:\Users\TeamUiS\AppData\Local\arduino15\packages\arduino\hardware\sam\1.6.11\variants\arduino_due_x/libsam_sam3x8e_gcc_rel.a(adc.o)
 .text.adc_set_comparison_channel
                0x00000000       0x26 C:\Users\TeamUiS\AppData\Local\arduino15\packages\arduino\hardware\sam\1.6.11\variants\arduino_due_x/libsam_sam3x8e_gcc_rel.a(adc.o)
 .text.adc_enable_channel_differential_input
                0x00000000       0x10 C:\Users\TeamUiS\AppData\Local\arduino15\packages\arduino\hardware\sam\1.6.11\variants\arduino_due_x/libsam_sam3x8e_gcc_rel.a(adc.o)
 .text.adc_disable_channel_differential_input
                0x00000000       0x1a C:\Users\TeamUiS\AppData\Local\arduino15\packages\arduino\hardware\sam\1.6.11\variants\arduino_due_x/libsam_sam3x8e_gcc_rel.a(adc.o)
 .text.adc_enable_channel_input_offset
                0x00000000        0xe C:\Users\TeamUiS\AppData\Local\arduino15\packages\arduino\hardware\sam\1.6.11\variants\arduino_due_x/libsam_sam3x8e_gcc_rel.a(adc.o)
 .text.adc_disable_channel_input_offset
                0x00000000       0x1a C:\Users\TeamUiS\AppData\Local\arduino15\packages\arduino\hardware\sam\1.6.11\variants\arduino_due_x/libsam_sam3x8e_gcc_rel.a(adc.o)
 .text.adc_set_channel_input_gain
                0x00000000       0x12 C:\Users\TeamUiS\AppData\Local\arduino15\packages\arduino\hardware\sam\1.6.11\variants\arduino_due_x/libsam_sam3x8e_gcc_rel.a(adc.o)
 .text.adc_get_actual_adc_clock
                0x00000000       0x10 C:\Users\TeamUiS\AppData\Local\arduino15\packages\arduino\hardware\sam\1.6.11\variants\arduino_due_x/libsam_sam3x8e_gcc_rel.a(adc.o)
 .text.adc_enable_interrupt
                0x00000000        0x4 C:\Users\TeamUiS\AppData\Local\arduino15\packages\arduino\hardware\sam\1.6.11\variants\arduino_due_x/libsam_sam3x8e_gcc_rel.a(adc.o)
 .text.adc_get_overrun_status
                0x00000000        0x4 C:\Users\TeamUiS\AppData\Local\arduino15\packages\arduino\hardware\sam\1.6.11\variants\arduino_due_x/libsam_sam3x8e_gcc_rel.a(adc.o)
 .text.adc_get_interrupt_mask
                0x00000000        0x4 C:\Users\TeamUiS\AppData\Local\arduino15\packages\arduino\hardware\sam\1.6.11\variants\arduino_due_x/libsam_sam3x8e_gcc_rel.a(adc.o)
 .text.adc_set_bias_current
                0x00000000       0x12 C:\Users\TeamUiS\AppData\Local\arduino15\packages\arduino\hardware\sam\1.6.11\variants\arduino_due_x/libsam_sam3x8e_gcc_rel.a(adc.o)
 .text.adc_enable_ts
                0x00000000        0xe C:\Users\TeamUiS\AppData\Local\arduino15\packages\arduino\hardware\sam\1.6.11\variants\arduino_due_x/libsam_sam3x8e_gcc_rel.a(adc.o)
 .text.adc_disable_ts
                0x00000000        0xe C:\Users\TeamUiS\AppData\Local\arduino15\packages\arduino\hardware\sam\1.6.11\variants\arduino_due_x/libsam_sam3x8e_gcc_rel.a(adc.o)
 .text.adc_set_writeprotect
                0x00000000        0xe C:\Users\TeamUiS\AppData\Local\arduino15\packages\arduino\hardware\sam\1.6.11\variants\arduino_due_x/libsam_sam3x8e_gcc_rel.a(adc.o)
 .text.adc_get_writeprotect_status
                0x00000000        0xa C:\Users\TeamUiS\AppData\Local\arduino15\packages\arduino\hardware\sam\1.6.11\variants\arduino_due_x/libsam_sam3x8e_gcc_rel.a(adc.o)
 .text.adc_get_pdc_base
                0x00000000        0x8 C:\Users\TeamUiS\AppData\Local\arduino15\packages\arduino\hardware\sam\1.6.11\variants\arduino_due_x/libsam_sam3x8e_gcc_rel.a(adc.o)
 .text          0x00000000        0x0 C:\Users\TeamUiS\AppData\Local\arduino15\packages\arduino\hardware\sam\1.6.11\variants\arduino_due_x/libsam_sam3x8e_gcc_rel.a(uotghs.o)
 .data          0x00000000        0x0 C:\Users\TeamUiS\AppData\Local\arduino15\packages\arduino\hardware\sam\1.6.11\variants\arduino_due_x/libsam_sam3x8e_gcc_rel.a(uotghs.o)
 .bss           0x00000000        0x0 C:\Users\TeamUiS\AppData\Local\arduino15\packages\arduino\hardware\sam\1.6.11\variants\arduino_due_x/libsam_sam3x8e_gcc_rel.a(uotghs.o)
 .text          0x00000000        0x0 C:\Users\TeamUiS\AppData\Local\Temp\VMBuilds\Circulation\arduino_due_x_dbg\Release/core.a(cortex_handlers.c.o)
 .data          0x00000000        0x0 C:\Users\TeamUiS\AppData\Local\Temp\VMBuilds\Circulation\arduino_due_x_dbg\Release/core.a(cortex_handlers.c.o)
 .bss           0x00000000        0x0 C:\Users\TeamUiS\AppData\Local\Temp\VMBuilds\Circulation\arduino_due_x_dbg\Release/core.a(cortex_handlers.c.o)
 .text          0x00000000        0x0 C:\Users\TeamUiS\AppData\Local\Temp\VMBuilds\Circulation\arduino_due_x_dbg\Release/core.a(hooks.c.o)
 .data          0x00000000        0x0 C:\Users\TeamUiS\AppData\Local\Temp\VMBuilds\Circulation\arduino_due_x_dbg\Release/core.a(hooks.c.o)
 .bss           0x00000000        0x0 C:\Users\TeamUiS\AppData\Local\Temp\VMBuilds\Circulation\arduino_due_x_dbg\Release/core.a(hooks.c.o)
 .text          0x00000000        0x0 C:\Users\TeamUiS\AppData\Local\Temp\VMBuilds\Circulation\arduino_due_x_dbg\Release/core.a(syscalls_sam3.c.o)
 .data          0x00000000        0x0 C:\Users\TeamUiS\AppData\Local\Temp\VMBuilds\Circulation\arduino_due_x_dbg\Release/core.a(syscalls_sam3.c.o)
 .bss           0x00000000        0x0 C:\Users\TeamUiS\AppData\Local\Temp\VMBuilds\Circulation\arduino_due_x_dbg\Release/core.a(syscalls_sam3.c.o)
 .text          0x00000000        0x0 C:\Users\TeamUiS\AppData\Local\Temp\VMBuilds\Circulation\arduino_due_x_dbg\Release/core.a(wiring.c.o)
 .data          0x00000000        0x0 C:\Users\TeamUiS\AppData\Local\Temp\VMBuilds\Circulation\arduino_due_x_dbg\Release/core.a(wiring.c.o)
 .bss           0x00000000        0x0 C:\Users\TeamUiS\AppData\Local\Temp\VMBuilds\Circulation\arduino_due_x_dbg\Release/core.a(wiring.c.o)
 .text.micros   0x00000000       0x74 C:\Users\TeamUiS\AppData\Local\Temp\VMBuilds\Circulation\arduino_due_x_dbg\Release/core.a(wiring.c.o)
 .text          0x00000000        0x0 C:\Users\TeamUiS\AppData\Local\Temp\VMBuilds\Circulation\arduino_due_x_dbg\Release/core.a(wiring_analog.c.o)
 .data          0x00000000        0x0 C:\Users\TeamUiS\AppData\Local\Temp\VMBuilds\Circulation\arduino_due_x_dbg\Release/core.a(wiring_analog.c.o)
 .bss           0x00000000        0x0 C:\Users\TeamUiS\AppData\Local\Temp\VMBuilds\Circulation\arduino_due_x_dbg\Release/core.a(wiring_analog.c.o)
 .text.analogReadResolution
                0x00000000        0xc C:\Users\TeamUiS\AppData\Local\Temp\VMBuilds\Circulation\arduino_due_x_dbg\Release/core.a(wiring_analog.c.o)
 .text.analogWriteResolution
                0x00000000        0xc C:\Users\TeamUiS\AppData\Local\Temp\VMBuilds\Circulation\arduino_due_x_dbg\Release/core.a(wiring_analog.c.o)
 .text.analogReference
                0x00000000        0xc C:\Users\TeamUiS\AppData\Local\Temp\VMBuilds\Circulation\arduino_due_x_dbg\Release/core.a(wiring_analog.c.o)
 .text.analogWrite
                0x00000000      0x2c0 C:\Users\TeamUiS\AppData\Local\Temp\VMBuilds\Circulation\arduino_due_x_dbg\Release/core.a(wiring_analog.c.o)
 .bss.PWMEnabled
                0x00000000        0x1 C:\Users\TeamUiS\AppData\Local\Temp\VMBuilds\Circulation\arduino_due_x_dbg\Release/core.a(wiring_analog.c.o)
 .data._writeResolution
                0x00000000        0x4 C:\Users\TeamUiS\AppData\Local\Temp\VMBuilds\Circulation\arduino_due_x_dbg\Release/core.a(wiring_analog.c.o)
 .bss.TCChanEnabled
                0x00000000        0x9 C:\Users\TeamUiS\AppData\Local\Temp\VMBuilds\Circulation\arduino_due_x_dbg\Release/core.a(wiring_analog.c.o)
 .rodata.channelToId.9433
                0x00000000       0x48 C:\Users\TeamUiS\AppData\Local\Temp\VMBuilds\Circulation\arduino_due_x_dbg\Release/core.a(wiring_analog.c.o)
 .bss.analog_reference
                0x00000000        0x1 C:\Users\TeamUiS\AppData\Local\Temp\VMBuilds\Circulation\arduino_due_x_dbg\Release/core.a(wiring_analog.c.o)
 .rodata.channelToTC.9432
                0x00000000       0x48 C:\Users\TeamUiS\AppData\Local\Temp\VMBuilds\Circulation\arduino_due_x_dbg\Release/core.a(wiring_analog.c.o)
 .rodata.channelToChNo.9430
                0x00000000       0x48 C:\Users\TeamUiS\AppData\Local\Temp\VMBuilds\Circulation\arduino_due_x_dbg\Release/core.a(wiring_analog.c.o)
 .rodata.channelToAB.9431
                0x00000000       0x48 C:\Users\TeamUiS\AppData\Local\Temp\VMBuilds\Circulation\arduino_due_x_dbg\Release/core.a(wiring_analog.c.o)
 .text          0x00000000        0x0 C:\Users\TeamUiS\AppData\Local\Temp\VMBuilds\Circulation\arduino_due_x_dbg\Release/core.a(wiring_digital.c.o)
 .data          0x00000000        0x0 C:\Users\TeamUiS\AppData\Local\Temp\VMBuilds\Circulation\arduino_due_x_dbg\Release/core.a(wiring_digital.c.o)
 .bss           0x00000000        0x0 C:\Users\TeamUiS\AppData\Local\Temp\VMBuilds\Circulation\arduino_due_x_dbg\Release/core.a(wiring_digital.c.o)
 .text.digitalRead
                0x00000000       0x44 C:\Users\TeamUiS\AppData\Local\Temp\VMBuilds\Circulation\arduino_due_x_dbg\Release/core.a(wiring_digital.c.o)
 .text          0x00000000        0x0 C:\Users\TeamUiS\AppData\Local\Temp\VMBuilds\Circulation\arduino_due_x_dbg\Release/core.a(main.cpp.o)
 .data          0x00000000        0x0 C:\Users\TeamUiS\AppData\Local\Temp\VMBuilds\Circulation\arduino_due_x_dbg\Release/core.a(main.cpp.o)
 .bss           0x00000000        0x0 C:\Users\TeamUiS\AppData\Local\Temp\VMBuilds\Circulation\arduino_due_x_dbg\Release/core.a(main.cpp.o)
 .group         0x00000000        0x8 C:\Users\TeamUiS\AppData\Local\Temp\VMBuilds\Circulation\arduino_due_x_dbg\Release/core.a(Print.cpp.o)
 .text          0x00000000        0x0 C:\Users\TeamUiS\AppData\Local\Temp\VMBuilds\Circulation\arduino_due_x_dbg\Release/core.a(Print.cpp.o)
 .data          0x00000000        0x0 C:\Users\TeamUiS\AppData\Local\Temp\VMBuilds\Circulation\arduino_due_x_dbg\Release/core.a(Print.cpp.o)
 .bss           0x00000000        0x0 C:\Users\TeamUiS\AppData\Local\Temp\VMBuilds\Circulation\arduino_due_x_dbg\Release/core.a(Print.cpp.o)
 .text._ZN5Print5printEmi.part.3
                0x00000000        0xc C:\Users\TeamUiS\AppData\Local\Temp\VMBuilds\Circulation\arduino_due_x_dbg\Release/core.a(Print.cpp.o)
 .text._ZN5Print5printEPK19__FlashStringHelper
                0x00000000        0x8 C:\Users\TeamUiS\AppData\Local\Temp\VMBuilds\Circulation\arduino_due_x_dbg\Release/core.a(Print.cpp.o)
 .text._ZN5Print5printERK6String
                0x00000000       0x10 C:\Users\TeamUiS\AppData\Local\Temp\VMBuilds\Circulation\arduino_due_x_dbg\Release/core.a(Print.cpp.o)
 .text._ZN5Print5printERK9Printable
                0x00000000       0x10 C:\Users\TeamUiS\AppData\Local\Temp\VMBuilds\Circulation\arduino_due_x_dbg\Release/core.a(Print.cpp.o)
 .text._ZN5Print7printlnEPK19__FlashStringHelper
                0x00000000       0x14 C:\Users\TeamUiS\AppData\Local\Temp\VMBuilds\Circulation\arduino_due_x_dbg\Release/core.a(Print.cpp.o)
 .text._ZN5Print7printlnERK6String
                0x00000000       0x14 C:\Users\TeamUiS\AppData\Local\Temp\VMBuilds\Circulation\arduino_due_x_dbg\Release/core.a(Print.cpp.o)
 .text._ZN5Print7printlnEc
                0x00000000       0x14 C:\Users\TeamUiS\AppData\Local\Temp\VMBuilds\Circulation\arduino_due_x_dbg\Release/core.a(Print.cpp.o)
 .text._ZN5Print7printlnERK9Printable
                0x00000000       0x14 C:\Users\TeamUiS\AppData\Local\Temp\VMBuilds\Circulation\arduino_due_x_dbg\Release/core.a(Print.cpp.o)
 .text._ZN5Print7printlnEii
                0x00000000       0x14 C:\Users\TeamUiS\AppData\Local\Temp\VMBuilds\Circulation\arduino_due_x_dbg\Release/core.a(Print.cpp.o)
 .text._ZN5Print7printlnEli
                0x00000000       0x14 C:\Users\TeamUiS\AppData\Local\Temp\VMBuilds\Circulation\arduino_due_x_dbg\Release/core.a(Print.cpp.o)
 .text._ZN5Print5printEmi
                0x00000000        0xc C:\Users\TeamUiS\AppData\Local\Temp\VMBuilds\Circulation\arduino_due_x_dbg\Release/core.a(Print.cpp.o)
 .text._ZN5Print5printEhi
                0x00000000        0x4 C:\Users\TeamUiS\AppData\Local\Temp\VMBuilds\Circulation\arduino_due_x_dbg\Release/core.a(Print.cpp.o)
 .text._ZN5Print7printlnEhi
                0x00000000       0x14 C:\Users\TeamUiS\AppData\Local\Temp\VMBuilds\Circulation\arduino_due_x_dbg\Release/core.a(Print.cpp.o)
 .text._ZN5Print5printEji
                0x00000000        0x4 C:\Users\TeamUiS\AppData\Local\Temp\VMBuilds\Circulation\arduino_due_x_dbg\Release/core.a(Print.cpp.o)
 .text._ZN5Print7printlnEji
                0x00000000       0x14 C:\Users\TeamUiS\AppData\Local\Temp\VMBuilds\Circulation\arduino_due_x_dbg\Release/core.a(Print.cpp.o)
 .text._ZN5Print7printlnEmi
                0x00000000       0x14 C:\Users\TeamUiS\AppData\Local\Temp\VMBuilds\Circulation\arduino_due_x_dbg\Release/core.a(Print.cpp.o)
 .text._ZN5Print7printlnEdi
                0x00000000       0x1c C:\Users\TeamUiS\AppData\Local\Temp\VMBuilds\Circulation\arduino_due_x_dbg\Release/core.a(Print.cpp.o)
 .rodata._ZTV5Print
                0x00000000       0x10 C:\Users\TeamUiS\AppData\Local\Temp\VMBuilds\Circulation\arduino_due_x_dbg\Release/core.a(Print.cpp.o)
 .text          0x00000000        0x0 C:\Users\TeamUiS\AppData\Local\Temp\VMBuilds\Circulation\arduino_due_x_dbg\Release/core.a(Reset.cpp.o)
 .data          0x00000000        0x0 C:\Users\TeamUiS\AppData\Local\Temp\VMBuilds\Circulation\arduino_due_x_dbg\Release/core.a(Reset.cpp.o)
 .bss           0x00000000        0x0 C:\Users\TeamUiS\AppData\Local\Temp\VMBuilds\Circulation\arduino_due_x_dbg\Release/core.a(Reset.cpp.o)
 .text          0x00000000        0x0 C:\Users\TeamUiS\AppData\Local\Temp\VMBuilds\Circulation\arduino_due_x_dbg\Release/core.a(RingBuffer.cpp.o)
 .data          0x00000000        0x0 C:\Users\TeamUiS\AppData\Local\Temp\VMBuilds\Circulation\arduino_due_x_dbg\Release/core.a(RingBuffer.cpp.o)
 .bss           0x00000000        0x0 C:\Users\TeamUiS\AppData\Local\Temp\VMBuilds\Circulation\arduino_due_x_dbg\Release/core.a(RingBuffer.cpp.o)
 .group         0x00000000        0x8 C:\Users\TeamUiS\AppData\Local\Temp\VMBuilds\Circulation\arduino_due_x_dbg\Release/core.a(UARTClass.cpp.o)
 .group         0x00000000        0x8 C:\Users\TeamUiS\AppData\Local\Temp\VMBuilds\Circulation\arduino_due_x_dbg\Release/core.a(UARTClass.cpp.o)
 .text          0x00000000        0x0 C:\Users\TeamUiS\AppData\Local\Temp\VMBuilds\Circulation\arduino_due_x_dbg\Release/core.a(UARTClass.cpp.o)
 .data          0x00000000        0x0 C:\Users\TeamUiS\AppData\Local\Temp\VMBuilds\Circulation\arduino_due_x_dbg\Release/core.a(UARTClass.cpp.o)
 .bss           0x00000000        0x0 C:\Users\TeamUiS\AppData\Local\Temp\VMBuilds\Circulation\arduino_due_x_dbg\Release/core.a(UARTClass.cpp.o)
 .text._ZN9UARTClass5beginEmNS_9UARTModesE
                0x00000000        0x8 C:\Users\TeamUiS\AppData\Local\Temp\VMBuilds\Circulation\arduino_due_x_dbg\Release/core.a(UARTClass.cpp.o)
 .text._ZN9UARTClass20setInterruptPriorityEm
                0x00000000       0x30 C:\Users\TeamUiS\AppData\Local\Temp\VMBuilds\Circulation\arduino_due_x_dbg\Release/core.a(UARTClass.cpp.o)
 .text._ZN9UARTClass20getInterruptPriorityEv
                0x00000000       0x28 C:\Users\TeamUiS\AppData\Local\Temp\VMBuilds\Circulation\arduino_due_x_dbg\Release/core.a(UARTClass.cpp.o)
 .text._ZN9UARTClass17availableForWriteEv
                0x00000000       0x1e C:\Users\TeamUiS\AppData\Local\Temp\VMBuilds\Circulation\arduino_due_x_dbg\Release/core.a(UARTClass.cpp.o)
 .rodata._ZTV6Stream
                0x00000000       0x20 C:\Users\TeamUiS\AppData\Local\Temp\VMBuilds\Circulation\arduino_due_x_dbg\Release/core.a(UARTClass.cpp.o)
 .group         0x00000000        0x8 C:\Users\TeamUiS\AppData\Local\Temp\VMBuilds\Circulation\arduino_due_x_dbg\Release/core.a(USARTClass.cpp.o)
 .text          0x00000000        0x0 C:\Users\TeamUiS\AppData\Local\Temp\VMBuilds\Circulation\arduino_due_x_dbg\Release/core.a(USARTClass.cpp.o)
 .data          0x00000000        0x0 C:\Users\TeamUiS\AppData\Local\Temp\VMBuilds\Circulation\arduino_due_x_dbg\Release/core.a(USARTClass.cpp.o)
 .bss           0x00000000        0x0 C:\Users\TeamUiS\AppData\Local\Temp\VMBuilds\Circulation\arduino_due_x_dbg\Release/core.a(USARTClass.cpp.o)
 .text._ZN9UARTClasscvbEv
                0x00000000        0x4 C:\Users\TeamUiS\AppData\Local\Temp\VMBuilds\Circulation\arduino_due_x_dbg\Release/core.a(USARTClass.cpp.o)
 .text._ZN10USARTClass5beginEmN9UARTClass9UARTModesE
                0x00000000        0x4 C:\Users\TeamUiS\AppData\Local\Temp\VMBuilds\Circulation\arduino_due_x_dbg\Release/core.a(USARTClass.cpp.o)
 .text._ZN10USARTClass5beginEmNS_10USARTModesE
                0x00000000        0x4 C:\Users\TeamUiS\AppData\Local\Temp\VMBuilds\Circulation\arduino_due_x_dbg\Release/core.a(USARTClass.cpp.o)
 .text          0x00000000        0x0 C:\Users\TeamUiS\AppData\Local\Temp\VMBuilds\Circulation\arduino_due_x_dbg\Release/core.a(watchdog.cpp.o)
 .data          0x00000000        0x0 C:\Users\TeamUiS\AppData\Local\Temp\VMBuilds\Circulation\arduino_due_x_dbg\Release/core.a(watchdog.cpp.o)
 .bss           0x00000000        0x0 C:\Users\TeamUiS\AppData\Local\Temp\VMBuilds\Circulation\arduino_due_x_dbg\Release/core.a(watchdog.cpp.o)
 .text._Z14watchdogEnablem
                0x00000000       0x34 C:\Users\TeamUiS\AppData\Local\Temp\VMBuilds\Circulation\arduino_due_x_dbg\Release/core.a(watchdog.cpp.o)
 .text._Z15watchdogDisablev
                0x00000000        0xc C:\Users\TeamUiS\AppData\Local\Temp\VMBuilds\Circulation\arduino_due_x_dbg\Release/core.a(watchdog.cpp.o)
 .text._Z13watchdogResetv
                0x00000000        0xc C:\Users\TeamUiS\AppData\Local\Temp\VMBuilds\Circulation\arduino_due_x_dbg\Release/core.a(watchdog.cpp.o)
 .text          0x00000000        0x0 C:\Users\TeamUiS\AppData\Local\Temp\VMBuilds\Circulation\arduino_due_x_dbg\Release/core.a(USBCore.cpp.o)
 .data          0x00000000        0x0 C:\Users\TeamUiS\AppData\Local\Temp\VMBuilds\Circulation\arduino_due_x_dbg\Release/core.a(USBCore.cpp.o)
 .bss           0x00000000        0x0 C:\Users\TeamUiS\AppData\Local\Temp\VMBuilds\Circulation\arduino_due_x_dbg\Release/core.a(USBCore.cpp.o)
 .text._Z16USBD_InitControli
                0x00000000       0x14 C:\Users\TeamUiS\AppData\Local\Temp\VMBuilds\Circulation\arduino_due_x_dbg\Release/core.a(USBCore.cpp.o)
 .text._Z14USBD_Connectedv
                0x00000000       0x1c C:\Users\TeamUiS\AppData\Local\Temp\VMBuilds\Circulation\arduino_due_x_dbg\Release/core.a(USBCore.cpp.o)
 .text._ZN10USBDevice_6detachEv
                0x00000000       0x14 C:\Users\TeamUiS\AppData\Local\Temp\VMBuilds\Circulation\arduino_due_x_dbg\Release/core.a(USBCore.cpp.o)
 .text._ZN10USBDevice_10configuredEv
                0x00000000       0x10 C:\Users\TeamUiS\AppData\Local\Temp\VMBuilds\Circulation\arduino_due_x_dbg\Release/core.a(USBCore.cpp.o)
 .text._ZN10USBDevice_4pollEv
                0x00000000        0x2 C:\Users\TeamUiS\AppData\Local\Temp\VMBuilds\Circulation\arduino_due_x_dbg\Release/core.a(USBCore.cpp.o)
 .bss.TxLEDPulse
                0x00000000        0x1 C:\Users\TeamUiS\AppData\Local\Temp\VMBuilds\Circulation\arduino_due_x_dbg\Release/core.a(USBCore.cpp.o)
 .bss.RxLEDPulse
                0x00000000        0x1 C:\Users\TeamUiS\AppData\Local\Temp\VMBuilds\Circulation\arduino_due_x_dbg\Release/core.a(USBCore.cpp.o)
 .text          0x00000000        0x0 C:\Users\TeamUiS\AppData\Local\Temp\VMBuilds\Circulation\arduino_due_x_dbg\Release/core.a(abi.cpp.o)
 .data          0x00000000        0x0 C:\Users\TeamUiS\AppData\Local\Temp\VMBuilds\Circulation\arduino_due_x_dbg\Release/core.a(abi.cpp.o)
 .bss           0x00000000        0x0 C:\Users\TeamUiS\AppData\Local\Temp\VMBuilds\Circulation\arduino_due_x_dbg\Release/core.a(abi.cpp.o)
 .text.__cxa_pure_virtual
                0x00000000        0x2 C:\Users\TeamUiS\AppData\Local\Temp\VMBuilds\Circulation\arduino_due_x_dbg\Release/core.a(abi.cpp.o)
 .text.__cxa_deleted_virtual
                0x00000000        0x2 C:\Users\TeamUiS\AppData\Local\Temp\VMBuilds\Circulation\arduino_due_x_dbg\Release/core.a(abi.cpp.o)
 .debug_info    0x00000000       0xa4 C:\Users\TeamUiS\AppData\Local\Temp\VMBuilds\Circulation\arduino_due_x_dbg\Release/core.a(abi.cpp.o)
 .debug_abbrev  0x00000000       0x45 C:\Users\TeamUiS\AppData\Local\Temp\VMBuilds\Circulation\arduino_due_x_dbg\Release/core.a(abi.cpp.o)
 .debug_aranges
                0x00000000       0x28 C:\Users\TeamUiS\AppData\Local\Temp\VMBuilds\Circulation\arduino_due_x_dbg\Release/core.a(abi.cpp.o)
 .debug_ranges  0x00000000       0x18 C:\Users\TeamUiS\AppData\Local\Temp\VMBuilds\Circulation\arduino_due_x_dbg\Release/core.a(abi.cpp.o)
 .debug_line    0x00000000       0xa2 C:\Users\TeamUiS\AppData\Local\Temp\VMBuilds\Circulation\arduino_due_x_dbg\Release/core.a(abi.cpp.o)
 .debug_str     0x00000000      0x236 C:\Users\TeamUiS\AppData\Local\Temp\VMBuilds\Circulation\arduino_due_x_dbg\Release/core.a(abi.cpp.o)
 .comment       0x00000000       0x71 C:\Users\TeamUiS\AppData\Local\Temp\VMBuilds\Circulation\arduino_due_x_dbg\Release/core.a(abi.cpp.o)
 .ARM.attributes
                0x00000000       0x33 C:\Users\TeamUiS\AppData\Local\Temp\VMBuilds\Circulation\arduino_due_x_dbg\Release/core.a(abi.cpp.o)
 .debug_frame   0x00000000       0x30 C:\Users\TeamUiS\AppData\Local\Temp\VMBuilds\Circulation\arduino_due_x_dbg\Release/core.a(abi.cpp.o)
 .text          0x00000000        0x0 C:\Users\TeamUiS\AppData\Local\Temp\VMBuilds\Circulation\arduino_due_x_dbg\Release/core.a(CDC.cpp.o)
 .data          0x00000000        0x0 C:\Users\TeamUiS\AppData\Local\Temp\VMBuilds\Circulation\arduino_due_x_dbg\Release/core.a(CDC.cpp.o)
 .bss           0x00000000        0x0 C:\Users\TeamUiS\AppData\Local\Temp\VMBuilds\Circulation\arduino_due_x_dbg\Release/core.a(CDC.cpp.o)
 .text._ZN7Serial_5beginEm
                0x00000000        0x2 C:\Users\TeamUiS\AppData\Local\Temp\VMBuilds\Circulation\arduino_due_x_dbg\Release/core.a(CDC.cpp.o)
 .text._ZN7Serial_5beginEmh
                0x00000000        0x2 C:\Users\TeamUiS\AppData\Local\Temp\VMBuilds\Circulation\arduino_due_x_dbg\Release/core.a(CDC.cpp.o)
 .text._ZN7Serial_3endEv
                0x00000000        0x2 C:\Users\TeamUiS\AppData\Local\Temp\VMBuilds\Circulation\arduino_due_x_dbg\Release/core.a(CDC.cpp.o)
 .text._ZN7Serial_cvbEv
                0x00000000       0x28 C:\Users\TeamUiS\AppData\Local\Temp\VMBuilds\Circulation\arduino_due_x_dbg\Release/core.a(CDC.cpp.o)
 .text._ZN7Serial_9readBreakEv
                0x00000000       0x30 C:\Users\TeamUiS\AppData\Local\Temp\VMBuilds\Circulation\arduino_due_x_dbg\Release/core.a(CDC.cpp.o)
 .text._ZN7Serial_4baudEv
                0x00000000        0xc C:\Users\TeamUiS\AppData\Local\Temp\VMBuilds\Circulation\arduino_due_x_dbg\Release/core.a(CDC.cpp.o)
 .text._ZN7Serial_8stopbitsEv
                0x00000000        0xc C:\Users\TeamUiS\AppData\Local\Temp\VMBuilds\Circulation\arduino_due_x_dbg\Release/core.a(CDC.cpp.o)
 .text._ZN7Serial_10paritytypeEv
                0x00000000        0xc C:\Users\TeamUiS\AppData\Local\Temp\VMBuilds\Circulation\arduino_due_x_dbg\Release/core.a(CDC.cpp.o)
 .text._ZN7Serial_7numbitsEv
                0x00000000        0xc C:\Users\TeamUiS\AppData\Local\Temp\VMBuilds\Circulation\arduino_due_x_dbg\Release/core.a(CDC.cpp.o)
 .text._ZN7Serial_3dtrEv
                0x00000000       0x10 C:\Users\TeamUiS\AppData\Local\Temp\VMBuilds\Circulation\arduino_due_x_dbg\Release/core.a(CDC.cpp.o)
 .text._ZN7Serial_3rtsEv
                0x00000000       0x10 C:\Users\TeamUiS\AppData\Local\Temp\VMBuilds\Circulation\arduino_due_x_dbg\Release/core.a(CDC.cpp.o)
 .data._serialPeek
                0x00000000        0x4 C:\Users\TeamUiS\AppData\Local\Temp\VMBuilds\Circulation\arduino_due_x_dbg\Release/core.a(CDC.cpp.o)
 .text          0x00000000        0x0 C:\Users\TeamUiS\AppData\Local\Temp\VMBuilds\Circulation\arduino_due_x_dbg\Release/core.a(PluggableUSB.cpp.o)
 .data          0x00000000        0x0 C:\Users\TeamUiS\AppData\Local\Temp\VMBuilds\Circulation\arduino_due_x_dbg\Release/core.a(PluggableUSB.cpp.o)
 .bss           0x00000000        0x0 C:\Users\TeamUiS\AppData\Local\Temp\VMBuilds\Circulation\arduino_due_x_dbg\Release/core.a(PluggableUSB.cpp.o)
 .text._ZN13PluggableUSB_4plugEP18PluggableUSBModule
                0x00000000       0x60 C:\Users\TeamUiS\AppData\Local\Temp\VMBuilds\Circulation\arduino_due_x_dbg\Release/core.a(PluggableUSB.cpp.o)
 .text._ZN13PluggableUSB_C2Ev
                0x00000000        0xe C:\Users\TeamUiS\AppData\Local\Temp\VMBuilds\Circulation\arduino_due_x_dbg\Release/core.a(PluggableUSB.cpp.o)
 .text          0x00000000        0x0 C:\Users\TeamUiS\AppData\Local\arduino15\packages\arduino\hardware\sam\1.6.11\variants\arduino_due_x/libsam_sam3x8e_gcc_rel.a(pwmc.o)
 .data          0x00000000        0x0 C:\Users\TeamUiS\AppData\Local\arduino15\packages\arduino\hardware\sam\1.6.11\variants\arduino_due_x/libsam_sam3x8e_gcc_rel.a(pwmc.o)
 .bss           0x00000000        0x0 C:\Users\TeamUiS\AppData\Local\arduino15\packages\arduino\hardware\sam\1.6.11\variants\arduino_due_x/libsam_sam3x8e_gcc_rel.a(pwmc.o)
 .text.FindClockConfiguration
                0x00000000       0x7c C:\Users\TeamUiS\AppData\Local\arduino15\packages\arduino\hardware\sam\1.6.11\variants\arduino_due_x/libsam_sam3x8e_gcc_rel.a(pwmc.o)
 .text.PWMC_ConfigureChannel
                0x00000000       0x60 C:\Users\TeamUiS\AppData\Local\arduino15\packages\arduino\hardware\sam\1.6.11\variants\arduino_due_x/libsam_sam3x8e_gcc_rel.a(pwmc.o)
 .text.PWMC_ConfigureChannelExt
                0x00000000       0xcc C:\Users\TeamUiS\AppData\Local\arduino15\packages\arduino\hardware\sam\1.6.11\variants\arduino_due_x/libsam_sam3x8e_gcc_rel.a(pwmc.o)
 .text.PWMC_ConfigureClocks
                0x00000000       0x54 C:\Users\TeamUiS\AppData\Local\arduino15\packages\arduino\hardware\sam\1.6.11\variants\arduino_due_x/libsam_sam3x8e_gcc_rel.a(pwmc.o)
 .text.PWMC_SetPeriod
                0x00000000       0x1a C:\Users\TeamUiS\AppData\Local\arduino15\packages\arduino\hardware\sam\1.6.11\variants\arduino_due_x/libsam_sam3x8e_gcc_rel.a(pwmc.o)
 .text.PWMC_SetDutyCycle
                0x00000000       0x44 C:\Users\TeamUiS\AppData\Local\arduino15\packages\arduino\hardware\sam\1.6.11\variants\arduino_due_x/libsam_sam3x8e_gcc_rel.a(pwmc.o)
 .text.PWMC_SetDeadTime
                0x00000000       0x60 C:\Users\TeamUiS\AppData\Local\arduino15\packages\arduino\hardware\sam\1.6.11\variants\arduino_due_x/libsam_sam3x8e_gcc_rel.a(pwmc.o)
 .text.PWMC_ConfigureSyncChannel
                0x00000000        0xe C:\Users\TeamUiS\AppData\Local\arduino15\packages\arduino\hardware\sam\1.6.11\variants\arduino_due_x/libsam_sam3x8e_gcc_rel.a(pwmc.o)
 .text.PWMC_SetSyncChannelUpdatePeriod
                0x00000000        0xc C:\Users\TeamUiS\AppData\Local\arduino15\packages\arduino\hardware\sam\1.6.11\variants\arduino_due_x/libsam_sam3x8e_gcc_rel.a(pwmc.o)
 .text.PWMC_SetSyncChannelUpdateUnlock
                0x00000000        0x6 C:\Users\TeamUiS\AppData\Local\arduino15\packages\arduino\hardware\sam\1.6.11\variants\arduino_due_x/libsam_sam3x8e_gcc_rel.a(pwmc.o)
 .text.PWMC_EnableChannel
                0x00000000        0xa C:\Users\TeamUiS\AppData\Local\arduino15\packages\arduino\hardware\sam\1.6.11\variants\arduino_due_x/libsam_sam3x8e_gcc_rel.a(pwmc.o)
 .text.PWMC_DisableChannel
                0x00000000        0xa C:\Users\TeamUiS\AppData\Local\arduino15\packages\arduino\hardware\sam\1.6.11\variants\arduino_due_x/libsam_sam3x8e_gcc_rel.a(pwmc.o)
 .text.PWMC_EnableChannelIt
                0x00000000        0xa C:\Users\TeamUiS\AppData\Local\arduino15\packages\arduino\hardware\sam\1.6.11\variants\arduino_due_x/libsam_sam3x8e_gcc_rel.a(pwmc.o)
 .text.PWMC_DisableChannelIt
                0x00000000        0xa C:\Users\TeamUiS\AppData\Local\arduino15\packages\arduino\hardware\sam\1.6.11\variants\arduino_due_x/libsam_sam3x8e_gcc_rel.a(pwmc.o)
 .text.PWMC_EnableIt
                0x00000000        0x6 C:\Users\TeamUiS\AppData\Local\arduino15\packages\arduino\hardware\sam\1.6.11\variants\arduino_due_x/libsam_sam3x8e_gcc_rel.a(pwmc.o)
 .text.PWMC_DisableIt
                0x00000000        0x6 C:\Users\TeamUiS\AppData\Local\arduino15\packages\arduino\hardware\sam\1.6.11\variants\arduino_due_x/libsam_sam3x8e_gcc_rel.a(pwmc.o)
 .text.PWMC_WriteBuffer
                0x00000000       0x2e C:\Users\TeamUiS\AppData\Local\arduino15\packages\arduino\hardware\sam\1.6.11\variants\arduino_due_x/libsam_sam3x8e_gcc_rel.a(pwmc.o)
 .text.PWMC_SetOverrideValue
                0x00000000        0x4 C:\Users\TeamUiS\AppData\Local\arduino15\packages\arduino\hardware\sam\1.6.11\variants\arduino_due_x/libsam_sam3x8e_gcc_rel.a(pwmc.o)
 .text.PWMC_EnableOverrideOutput
                0x00000000        0xa C:\Users\TeamUiS\AppData\Local\arduino15\packages\arduino\hardware\sam\1.6.11\variants\arduino_due_x/libsam_sam3x8e_gcc_rel.a(pwmc.o)
 .text.PWMC_DisableOverrideOutput
                0x00000000        0xa C:\Users\TeamUiS\AppData\Local\arduino15\packages\arduino\hardware\sam\1.6.11\variants\arduino_due_x/libsam_sam3x8e_gcc_rel.a(pwmc.o)
 .text.PWMC_SetFaultMode
                0x00000000        0x4 C:\Users\TeamUiS\AppData\Local\arduino15\packages\arduino\hardware\sam\1.6.11\variants\arduino_due_x/libsam_sam3x8e_gcc_rel.a(pwmc.o)
 .text.PWMC_FaultClear
                0x00000000        0x4 C:\Users\TeamUiS\AppData\Local\arduino15\packages\arduino\hardware\sam\1.6.11\variants\arduino_due_x/libsam_sam3x8e_gcc_rel.a(pwmc.o)
 .text.PWMC_SetFaultProtectionValue
                0x00000000        0x4 C:\Users\TeamUiS\AppData\Local\arduino15\packages\arduino\hardware\sam\1.6.11\variants\arduino_due_x/libsam_sam3x8e_gcc_rel.a(pwmc.o)
 .text.PWMC_EnableFaultProtection
                0x00000000       0x34 C:\Users\TeamUiS\AppData\Local\arduino15\packages\arduino\hardware\sam\1.6.11\variants\arduino_due_x/libsam_sam3x8e_gcc_rel.a(pwmc.o)
 .text.PWMC_ConfigureComparisonUnit
                0x00000000       0x4c C:\Users\TeamUiS\AppData\Local\arduino15\packages\arduino\hardware\sam\1.6.11\variants\arduino_due_x/libsam_sam3x8e_gcc_rel.a(pwmc.o)
 .text.PWMC_ConfigureEventLineMode
                0x00000000       0x30 C:\Users\TeamUiS\AppData\Local\arduino15\packages\arduino\hardware\sam\1.6.11\variants\arduino_due_x/libsam_sam3x8e_gcc_rel.a(pwmc.o)
 .rodata        0x00000000       0x2c C:\Users\TeamUiS\AppData\Local\arduino15\packages\arduino\hardware\sam\1.6.11\variants\arduino_due_x/libsam_sam3x8e_gcc_rel.a(pwmc.o)
 .rodata.__func__.6932
                0x00000000       0x1d C:\Users\TeamUiS\AppData\Local\arduino15\packages\arduino\hardware\sam\1.6.11\variants\arduino_due_x/libsam_sam3x8e_gcc_rel.a(pwmc.o)
 .rodata.__func__.6819
                0x00000000       0x19 C:\Users\TeamUiS\AppData\Local\arduino15\packages\arduino\hardware\sam\1.6.11\variants\arduino_due_x/libsam_sam3x8e_gcc_rel.a(pwmc.o)
 .rodata.__func__.6830
                0x00000000       0x15 C:\Users\TeamUiS\AppData\Local\arduino15\packages\arduino\hardware\sam\1.6.11\variants\arduino_due_x/libsam_sam3x8e_gcc_rel.a(pwmc.o)
 .rodata.__func__.6938
                0x00000000       0x1c C:\Users\TeamUiS\AppData\Local\arduino15\packages\arduino\hardware\sam\1.6.11\variants\arduino_due_x/libsam_sam3x8e_gcc_rel.a(pwmc.o)
 .rodata.__func__.6841
                0x00000000       0x12 C:\Users\TeamUiS\AppData\Local\arduino15\packages\arduino\hardware\sam\1.6.11\variants\arduino_due_x/libsam_sam3x8e_gcc_rel.a(pwmc.o)
 .rodata.str1.1
                0x00000000      0x1cc C:\Users\TeamUiS\AppData\Local\arduino15\packages\arduino\hardware\sam\1.6.11\variants\arduino_due_x/libsam_sam3x8e_gcc_rel.a(pwmc.o)
 .rodata.__func__.6848
                0x00000000       0x11 C:\Users\TeamUiS\AppData\Local\arduino15\packages\arduino\hardware\sam\1.6.11\variants\arduino_due_x/libsam_sam3x8e_gcc_rel.a(pwmc.o)
 .rodata.__func__.6804
                0x00000000       0x16 C:\Users\TeamUiS\AppData\Local\arduino15\packages\arduino\hardware\sam\1.6.11\variants\arduino_due_x/libsam_sam3x8e_gcc_rel.a(pwmc.o)
 .rodata.__func__.6793
                0x00000000       0x17 C:\Users\TeamUiS\AppData\Local\arduino15\packages\arduino\hardware\sam\1.6.11\variants\arduino_due_x/libsam_sam3x8e_gcc_rel.a(pwmc.o)
 .comment       0x00000000       0x71 C:\Users\TeamUiS\AppData\Local\arduino15\packages\arduino\hardware\sam\1.6.11\variants\arduino_due_x/libsam_sam3x8e_gcc_rel.a(pwmc.o)
 .ARM.attributes
                0x00000000       0x33 C:\Users\TeamUiS\AppData\Local\arduino15\packages\arduino\hardware\sam\1.6.11\variants\arduino_due_x/libsam_sam3x8e_gcc_rel.a(pwmc.o)
 .text          0x00000000        0x0 C:\Users\TeamUiS\AppData\Local\arduino15\packages\arduino\hardware\sam\1.6.11\variants\arduino_due_x/libsam_sam3x8e_gcc_rel.a(tc.o)
 .data          0x00000000        0x0 C:\Users\TeamUiS\AppData\Local\arduino15\packages\arduino\hardware\sam\1.6.11\variants\arduino_due_x/libsam_sam3x8e_gcc_rel.a(tc.o)
 .bss           0x00000000        0x0 C:\Users\TeamUiS\AppData\Local\arduino15\packages\arduino\hardware\sam\1.6.11\variants\arduino_due_x/libsam_sam3x8e_gcc_rel.a(tc.o)
 .text.TC_Configure
                0x00000000       0x38 C:\Users\TeamUiS\AppData\Local\arduino15\packages\arduino\hardware\sam\1.6.11\variants\arduino_due_x/libsam_sam3x8e_gcc_rel.a(tc.o)
 .text.TC_Start
                0x00000000       0x2c C:\Users\TeamUiS\AppData\Local\arduino15\packages\arduino\hardware\sam\1.6.11\variants\arduino_due_x/libsam_sam3x8e_gcc_rel.a(tc.o)
 .text.TC_Stop  0x00000000       0x2c C:\Users\TeamUiS\AppData\Local\arduino15\packages\arduino\hardware\sam\1.6.11\variants\arduino_due_x/libsam_sam3x8e_gcc_rel.a(tc.o)
 .text.TC_FindMckDivisor
                0x00000000       0x6a C:\Users\TeamUiS\AppData\Local\arduino15\packages\arduino\hardware\sam\1.6.11\variants\arduino_due_x/libsam_sam3x8e_gcc_rel.a(tc.o)
 .text.TC_ReadCV
                0x00000000        0x8 C:\Users\TeamUiS\AppData\Local\arduino15\packages\arduino\hardware\sam\1.6.11\variants\arduino_due_x/libsam_sam3x8e_gcc_rel.a(tc.o)
 .text.TC_GetStatus
                0x00000000        0x8 C:\Users\TeamUiS\AppData\Local\arduino15\packages\arduino\hardware\sam\1.6.11\variants\arduino_due_x/libsam_sam3x8e_gcc_rel.a(tc.o)
 .text.TC_SetRA
                0x00000000        0x8 C:\Users\TeamUiS\AppData\Local\arduino15\packages\arduino\hardware\sam\1.6.11\variants\arduino_due_x/libsam_sam3x8e_gcc_rel.a(tc.o)
 .text.TC_SetRB
                0x00000000        0x8 C:\Users\TeamUiS\AppData\Local\arduino15\packages\arduino\hardware\sam\1.6.11\variants\arduino_due_x/libsam_sam3x8e_gcc_rel.a(tc.o)
 .text.TC_SetRC
                0x00000000        0x8 C:\Users\TeamUiS\AppData\Local\arduino15\packages\arduino\hardware\sam\1.6.11\variants\arduino_due_x/libsam_sam3x8e_gcc_rel.a(tc.o)
 .rodata.__func__.6792
                0x00000000        0xd C:\Users\TeamUiS\AppData\Local\arduino15\packages\arduino\hardware\sam\1.6.11\variants\arduino_due_x/libsam_sam3x8e_gcc_rel.a(tc.o)
 .rodata.str1.1
                0x00000000       0x54 C:\Users\TeamUiS\AppData\Local\arduino15\packages\arduino\hardware\sam\1.6.11\variants\arduino_due_x/libsam_sam3x8e_gcc_rel.a(tc.o)
 .rodata.__func__.6798
                0x00000000        0x9 C:\Users\TeamUiS\AppData\Local\arduino15\packages\arduino\hardware\sam\1.6.11\variants\arduino_due_x/libsam_sam3x8e_gcc_rel.a(tc.o)
 .rodata.__func__.6804
                0x00000000        0x8 C:\Users\TeamUiS\AppData\Local\arduino15\packages\arduino\hardware\sam\1.6.11\variants\arduino_due_x/libsam_sam3x8e_gcc_rel.a(tc.o)
 .comment       0x00000000       0x71 C:\Users\TeamUiS\AppData\Local\arduino15\packages\arduino\hardware\sam\1.6.11\variants\arduino_due_x/libsam_sam3x8e_gcc_rel.a(tc.o)
 .ARM.attributes
                0x00000000       0x33 C:\Users\TeamUiS\AppData\Local\arduino15\packages\arduino\hardware\sam\1.6.11\variants\arduino_due_x/libsam_sam3x8e_gcc_rel.a(tc.o)
 .text          0x00000000        0x0 C:\Users\TeamUiS\AppData\Local\arduino15\packages\arduino\hardware\sam\1.6.11\variants\arduino_due_x/libsam_sam3x8e_gcc_rel.a(timetick.o)
 .data          0x00000000        0x0 C:\Users\TeamUiS\AppData\Local\arduino15\packages\arduino\hardware\sam\1.6.11\variants\arduino_due_x/libsam_sam3x8e_gcc_rel.a(timetick.o)
 .bss           0x00000000        0x0 C:\Users\TeamUiS\AppData\Local\arduino15\packages\arduino\hardware\sam\1.6.11\variants\arduino_due_x/libsam_sam3x8e_gcc_rel.a(timetick.o)
 .text.TimeTick_Configure
                0x00000000       0x34 C:\Users\TeamUiS\AppData\Local\arduino15\packages\arduino\hardware\sam\1.6.11\variants\arduino_due_x/libsam_sam3x8e_gcc_rel.a(timetick.o)
 .text.Wait     0x00000000       0x1c C:\Users\TeamUiS\AppData\Local\arduino15\packages\arduino\hardware\sam\1.6.11\variants\arduino_due_x/libsam_sam3x8e_gcc_rel.a(timetick.o)
 .text.Sleep    0x00000000       0x20 C:\Users\TeamUiS\AppData\Local\arduino15\packages\arduino\hardware\sam\1.6.11\variants\arduino_due_x/libsam_sam3x8e_gcc_rel.a(timetick.o)
 .text          0x00000000        0x0 C:\Users\TeamUiS\AppData\Local\arduino15\packages\arduino\hardware\sam\1.6.11\variants\arduino_due_x/libsam_sam3x8e_gcc_rel.a(wdt.o)
 .data          0x00000000        0x0 C:\Users\TeamUiS\AppData\Local\arduino15\packages\arduino\hardware\sam\1.6.11\variants\arduino_due_x/libsam_sam3x8e_gcc_rel.a(wdt.o)
 .bss           0x00000000        0x0 C:\Users\TeamUiS\AppData\Local\arduino15\packages\arduino\hardware\sam\1.6.11\variants\arduino_due_x/libsam_sam3x8e_gcc_rel.a(wdt.o)
 .text.WDT_Enable
                0x00000000        0x4 C:\Users\TeamUiS\AppData\Local\arduino15\packages\arduino\hardware\sam\1.6.11\variants\arduino_due_x/libsam_sam3x8e_gcc_rel.a(wdt.o)
 .text.WDT_Restart
                0x00000000        0xc C:\Users\TeamUiS\AppData\Local\arduino15\packages\arduino\hardware\sam\1.6.11\variants\arduino_due_x/libsam_sam3x8e_gcc_rel.a(wdt.o)
 .text.WDT_GetStatus
                0x00000000        0x8 C:\Users\TeamUiS\AppData\Local\arduino15\packages\arduino\hardware\sam\1.6.11\variants\arduino_due_x/libsam_sam3x8e_gcc_rel.a(wdt.o)
 .text.WDT_GetPeriod
                0x00000000       0x18 C:\Users\TeamUiS\AppData\Local\arduino15\packages\arduino\hardware\sam\1.6.11\variants\arduino_due_x/libsam_sam3x8e_gcc_rel.a(wdt.o)
 .text          0x00000000        0x0 C:\Users\TeamUiS\AppData\Local\arduino15\packages\arduino\hardware\sam\1.6.11\variants\arduino_due_x/libsam_sam3x8e_gcc_rel.a(interrupt_sam_nvic.o)
 .data          0x00000000        0x0 C:\Users\TeamUiS\AppData\Local\arduino15\packages\arduino\hardware\sam\1.6.11\variants\arduino_due_x/libsam_sam3x8e_gcc_rel.a(interrupt_sam_nvic.o)
 .bss           0x00000000        0x0 C:\Users\TeamUiS\AppData\Local\arduino15\packages\arduino\hardware\sam\1.6.11\variants\arduino_due_x/libsam_sam3x8e_gcc_rel.a(interrupt_sam_nvic.o)
 .text          0x00000000        0x0 C:\Users\TeamUiS\AppData\Local\arduino15\packages\arduino\hardware\sam\1.6.11\variants\arduino_due_x/libsam_sam3x8e_gcc_rel.a(uotghs_device.o)
 .data          0x00000000        0x0 C:\Users\TeamUiS\AppData\Local\arduino15\packages\arduino\hardware\sam\1.6.11\variants\arduino_due_x/libsam_sam3x8e_gcc_rel.a(uotghs_device.o)
 .bss           0x00000000        0x0 C:\Users\TeamUiS\AppData\Local\arduino15\packages\arduino\hardware\sam\1.6.11\variants\arduino_due_x/libsam_sam3x8e_gcc_rel.a(uotghs_device.o)
 .text.UDD_Detach
                0x00000000       0x10 C:\Users\TeamUiS\AppData\Local\arduino15\packages\arduino\hardware\sam\1.6.11\variants\arduino_due_x/libsam_sam3x8e_gcc_rel.a(uotghs_device.o)
 .text.UDD_WaitForINOrOUT
                0x00000000       0x1c C:\Users\TeamUiS\AppData\Local\arduino15\packages\arduino\hardware\sam\1.6.11\variants\arduino_due_x/libsam_sam3x8e_gcc_rel.a(uotghs_device.o)
 .text.UDD_ReadWriteAllowed
                0x00000000       0x14 C:\Users\TeamUiS\AppData\Local\arduino15\packages\arduino\hardware\sam\1.6.11\variants\arduino_due_x/libsam_sam3x8e_gcc_rel.a(uotghs_device.o)
 .text.UDD_GetFrameNumber
                0x00000000       0x10 C:\Users\TeamUiS\AppData\Local\arduino15\packages\arduino\hardware\sam\1.6.11\variants\arduino_due_x/libsam_sam3x8e_gcc_rel.a(uotghs_device.o)
 .text          0x00000000        0x0 C:\Users\TeamUiS\AppData\Local\arduino15\packages\arduino\hardware\sam\1.6.11\variants\arduino_due_x/libsam_sam3x8e_gcc_rel.a(dacc.o)
 .data          0x00000000        0x0 C:\Users\TeamUiS\AppData\Local\arduino15\packages\arduino\hardware\sam\1.6.11\variants\arduino_due_x/libsam_sam3x8e_gcc_rel.a(dacc.o)
 .bss           0x00000000        0x0 C:\Users\TeamUiS\AppData\Local\arduino15\packages\arduino\hardware\sam\1.6.11\variants\arduino_due_x/libsam_sam3x8e_gcc_rel.a(dacc.o)
 .text.dacc_reset
                0x00000000        0x6 C:\Users\TeamUiS\AppData\Local\arduino15\packages\arduino\hardware\sam\1.6.11\variants\arduino_due_x/libsam_sam3x8e_gcc_rel.a(dacc.o)
 .text.dacc_set_trigger
                0x00000000       0x18 C:\Users\TeamUiS\AppData\Local\arduino15\packages\arduino\hardware\sam\1.6.11\variants\arduino_due_x/libsam_sam3x8e_gcc_rel.a(dacc.o)
 .text.dacc_disable_trigger
                0x00000000        0xa C:\Users\TeamUiS\AppData\Local\arduino15\packages\arduino\hardware\sam\1.6.11\variants\arduino_due_x/libsam_sam3x8e_gcc_rel.a(dacc.o)
 .text.dacc_set_transfer_mode
                0x00000000       0x14 C:\Users\TeamUiS\AppData\Local\arduino15\packages\arduino\hardware\sam\1.6.11\variants\arduino_due_x/libsam_sam3x8e_gcc_rel.a(dacc.o)
 .text.dacc_enable_interrupt
                0x00000000        0x4 C:\Users\TeamUiS\AppData\Local\arduino15\packages\arduino\hardware\sam\1.6.11\variants\arduino_due_x/libsam_sam3x8e_gcc_rel.a(dacc.o)
 .text.dacc_disable_interrupt
                0x00000000        0x4 C:\Users\TeamUiS\AppData\Local\arduino15\packages\arduino\hardware\sam\1.6.11\variants\arduino_due_x/libsam_sam3x8e_gcc_rel.a(dacc.o)
 .text.dacc_get_interrupt_mask
                0x00000000        0x4 C:\Users\TeamUiS\AppData\Local\arduino15\packages\arduino\hardware\sam\1.6.11\variants\arduino_due_x/libsam_sam3x8e_gcc_rel.a(dacc.o)
 .text.dacc_get_interrupt_status
                0x00000000        0x4 C:\Users\TeamUiS\AppData\Local\arduino15\packages\arduino\hardware\sam\1.6.11\variants\arduino_due_x/libsam_sam3x8e_gcc_rel.a(dacc.o)
 .text.dacc_write_conversion_data
                0x00000000        0x4 C:\Users\TeamUiS\AppData\Local\arduino15\packages\arduino\hardware\sam\1.6.11\variants\arduino_due_x/libsam_sam3x8e_gcc_rel.a(dacc.o)
 .text.dacc_set_writeprotect
                0x00000000       0x18 C:\Users\TeamUiS\AppData\Local\arduino15\packages\arduino\hardware\sam\1.6.11\variants\arduino_due_x/libsam_sam3x8e_gcc_rel.a(dacc.o)
 .text.dacc_get_writeprotect_status
                0x00000000        0x6 C:\Users\TeamUiS\AppData\Local\arduino15\packages\arduino\hardware\sam\1.6.11\variants\arduino_due_x/libsam_sam3x8e_gcc_rel.a(dacc.o)
 .text.dacc_get_pdc_base
                0x00000000        0x8 C:\Users\TeamUiS\AppData\Local\arduino15\packages\arduino\hardware\sam\1.6.11\variants\arduino_due_x/libsam_sam3x8e_gcc_rel.a(dacc.o)
 .text.dacc_set_channel_selection
                0x00000000       0x18 C:\Users\TeamUiS\AppData\Local\arduino15\packages\arduino\hardware\sam\1.6.11\variants\arduino_due_x/libsam_sam3x8e_gcc_rel.a(dacc.o)
 .text.dacc_enable_flexible_selection
                0x00000000        0xa C:\Users\TeamUiS\AppData\Local\arduino15\packages\arduino\hardware\sam\1.6.11\variants\arduino_due_x/libsam_sam3x8e_gcc_rel.a(dacc.o)
 .text.dacc_set_power_save
                0x00000000       0x24 C:\Users\TeamUiS\AppData\Local\arduino15\packages\arduino\hardware\sam\1.6.11\variants\arduino_due_x/libsam_sam3x8e_gcc_rel.a(dacc.o)
 .text.dacc_set_timing
                0x00000000       0x2c C:\Users\TeamUiS\AppData\Local\arduino15\packages\arduino\hardware\sam\1.6.11\variants\arduino_due_x/libsam_sam3x8e_gcc_rel.a(dacc.o)
 .text.dacc_enable_channel
                0x00000000       0x12 C:\Users\TeamUiS\AppData\Local\arduino15\packages\arduino\hardware\sam\1.6.11\variants\arduino_due_x/libsam_sam3x8e_gcc_rel.a(dacc.o)
 .text.dacc_disable_channel
                0x00000000       0x12 C:\Users\TeamUiS\AppData\Local\arduino15\packages\arduino\hardware\sam\1.6.11\variants\arduino_due_x/libsam_sam3x8e_gcc_rel.a(dacc.o)
 .text.dacc_get_channel_status
                0x00000000        0x4 C:\Users\TeamUiS\AppData\Local\arduino15\packages\arduino\hardware\sam\1.6.11\variants\arduino_due_x/libsam_sam3x8e_gcc_rel.a(dacc.o)
 .text.dacc_set_analog_control
                0x00000000        0x8 C:\Users\TeamUiS\AppData\Local\arduino15\packages\arduino\hardware\sam\1.6.11\variants\arduino_due_x/libsam_sam3x8e_gcc_rel.a(dacc.o)
 .text.dacc_get_analog_control
                0x00000000        0x6 C:\Users\TeamUiS\AppData\Local\arduino15\packages\arduino\hardware\sam\1.6.11\variants\arduino_due_x/libsam_sam3x8e_gcc_rel.a(dacc.o)
 .comment       0x00000000       0x71 C:\Users\TeamUiS\AppData\Local\arduino15\packages\arduino\hardware\sam\1.6.11\variants\arduino_due_x/libsam_sam3x8e_gcc_rel.a(dacc.o)
 .ARM.attributes
                0x00000000       0x33 C:\Users\TeamUiS\AppData\Local\arduino15\packages\arduino\hardware\sam\1.6.11\variants\arduino_due_x/libsam_sam3x8e_gcc_rel.a(dacc.o)
 .text          0x00000000        0x0 c:/users/teamuis/appdata/local/arduino15/packages/arduino/tools/arm-none-eabi-gcc/4.8.3-2014q1/bin/../lib/gcc/arm-none-eabi/4.8.3/../../../../arm-none-eabi/lib/armv7-m\libm.a(lib_a-s_fpclassify.o)
 .data          0x00000000        0x0 c:/users/teamuis/appdata/local/arduino15/packages/arduino/tools/arm-none-eabi-gcc/4.8.3-2014q1/bin/../lib/gcc/arm-none-eabi/4.8.3/../../../../arm-none-eabi/lib/armv7-m\libm.a(lib_a-s_fpclassify.o)
 .bss           0x00000000        0x0 c:/users/teamuis/appdata/local/arduino15/packages/arduino/tools/arm-none-eabi-gcc/4.8.3-2014q1/bin/../lib/gcc/arm-none-eabi/4.8.3/../../../../arm-none-eabi/lib/armv7-m\libm.a(lib_a-s_fpclassify.o)
 .data          0x00000000        0x0 c:/users/teamuis/appdata/local/arduino15/packages/arduino/tools/arm-none-eabi-gcc/4.8.3-2014q1/bin/../lib/gcc/arm-none-eabi/4.8.3/armv7-m\libgcc.a(_arm_addsubdf3.o)
 .bss           0x00000000        0x0 c:/users/teamuis/appdata/local/arduino15/packages/arduino/tools/arm-none-eabi-gcc/4.8.3-2014q1/bin/../lib/gcc/arm-none-eabi/4.8.3/armv7-m\libgcc.a(_arm_addsubdf3.o)
 .data          0x00000000        0x0 c:/users/teamuis/appdata/local/arduino15/packages/arduino/tools/arm-none-eabi-gcc/4.8.3-2014q1/bin/../lib/gcc/arm-none-eabi/4.8.3/armv7-m\libgcc.a(_arm_muldivdf3.o)
 .bss           0x00000000        0x0 c:/users/teamuis/appdata/local/arduino15/packages/arduino/tools/arm-none-eabi-gcc/4.8.3-2014q1/bin/../lib/gcc/arm-none-eabi/4.8.3/armv7-m\libgcc.a(_arm_muldivdf3.o)
 .data          0x00000000        0x0 c:/users/teamuis/appdata/local/arduino15/packages/arduino/tools/arm-none-eabi-gcc/4.8.3-2014q1/bin/../lib/gcc/arm-none-eabi/4.8.3/armv7-m\libgcc.a(_arm_cmpdf2.o)
 .bss           0x00000000        0x0 c:/users/teamuis/appdata/local/arduino15/packages/arduino/tools/arm-none-eabi-gcc/4.8.3-2014q1/bin/../lib/gcc/arm-none-eabi/4.8.3/armv7-m\libgcc.a(_arm_cmpdf2.o)
 .data          0x00000000        0x0 c:/users/teamuis/appdata/local/arduino15/packages/arduino/tools/arm-none-eabi-gcc/4.8.3-2014q1/bin/../lib/gcc/arm-none-eabi/4.8.3/armv7-m\libgcc.a(_arm_fixunsdfsi.o)
 .bss           0x00000000        0x0 c:/users/teamuis/appdata/local/arduino15/packages/arduino/tools/arm-none-eabi-gcc/4.8.3-2014q1/bin/../lib/gcc/arm-none-eabi/4.8.3/armv7-m\libgcc.a(_arm_fixunsdfsi.o)
 .data          0x00000000        0x0 c:/users/teamuis/appdata/local/arduino15/packages/arduino/tools/arm-none-eabi-gcc/4.8.3-2014q1/bin/../lib/gcc/arm-none-eabi/4.8.3/armv7-m\libgcc.a(_arm_truncdfsf2.o)
 .bss           0x00000000        0x0 c:/users/teamuis/appdata/local/arduino15/packages/arduino/tools/arm-none-eabi-gcc/4.8.3-2014q1/bin/../lib/gcc/arm-none-eabi/4.8.3/armv7-m\libgcc.a(_arm_truncdfsf2.o)
 .data          0x00000000        0x0 c:/users/teamuis/appdata/local/arduino15/packages/arduino/tools/arm-none-eabi-gcc/4.8.3-2014q1/bin/../lib/gcc/arm-none-eabi/4.8.3/armv7-m\libgcc.a(_arm_addsubsf3.o)
 .bss           0x00000000        0x0 c:/users/teamuis/appdata/local/arduino15/packages/arduino/tools/arm-none-eabi-gcc/4.8.3-2014q1/bin/../lib/gcc/arm-none-eabi/4.8.3/armv7-m\libgcc.a(_arm_addsubsf3.o)
 .data          0x00000000        0x0 c:/users/teamuis/appdata/local/arduino15/packages/arduino/tools/arm-none-eabi-gcc/4.8.3-2014q1/bin/../lib/gcc/arm-none-eabi/4.8.3/armv7-m\libgcc.a(_arm_muldivsf3.o)
 .bss           0x00000000        0x0 c:/users/teamuis/appdata/local/arduino15/packages/arduino/tools/arm-none-eabi-gcc/4.8.3-2014q1/bin/../lib/gcc/arm-none-eabi/4.8.3/armv7-m\libgcc.a(_arm_muldivsf3.o)
 .data          0x00000000        0x0 c:/users/teamuis/appdata/local/arduino15/packages/arduino/tools/arm-none-eabi-gcc/4.8.3-2014q1/bin/../lib/gcc/arm-none-eabi/4.8.3/armv7-m\libgcc.a(_arm_cmpsf2.o)
 .bss           0x00000000        0x0 c:/users/teamuis/appdata/local/arduino15/packages/arduino/tools/arm-none-eabi-gcc/4.8.3-2014q1/bin/../lib/gcc/arm-none-eabi/4.8.3/armv7-m\libgcc.a(_arm_cmpsf2.o)
 .text          0x00000000        0x0 c:/users/teamuis/appdata/local/arduino15/packages/arduino/tools/arm-none-eabi-gcc/4.8.3-2014q1/bin/../lib/gcc/arm-none-eabi/4.8.3/../../../../arm-none-eabi/lib/armv7-m\libg.a(lib_a-assert.o)
 .data          0x00000000        0x0 c:/users/teamuis/appdata/local/arduino15/packages/arduino/tools/arm-none-eabi-gcc/4.8.3-2014q1/bin/../lib/gcc/arm-none-eabi/4.8.3/../../../../arm-none-eabi/lib/armv7-m\libg.a(lib_a-assert.o)
 .bss           0x00000000        0x0 c:/users/teamuis/appdata/local/arduino15/packages/arduino/tools/arm-none-eabi-gcc/4.8.3-2014q1/bin/../lib/gcc/arm-none-eabi/4.8.3/../../../../arm-none-eabi/lib/armv7-m\libg.a(lib_a-assert.o)
 .text.__assert_func
                0x00000000       0x3c c:/users/teamuis/appdata/local/arduino15/packages/arduino/tools/arm-none-eabi-gcc/4.8.3-2014q1/bin/../lib/gcc/arm-none-eabi/4.8.3/../../../../arm-none-eabi/lib/armv7-m\libg.a(lib_a-assert.o)
 .text.__assert
                0x00000000        0xc c:/users/teamuis/appdata/local/arduino15/packages/arduino/tools/arm-none-eabi-gcc/4.8.3-2014q1/bin/../lib/gcc/arm-none-eabi/4.8.3/../../../../arm-none-eabi/lib/armv7-m\libg.a(lib_a-assert.o)
 .rodata.str1.4
                0x00000000       0x44 c:/users/teamuis/appdata/local/arduino15/packages/arduino/tools/arm-none-eabi-gcc/4.8.3-2014q1/bin/../lib/gcc/arm-none-eabi/4.8.3/../../../../arm-none-eabi/lib/armv7-m\libg.a(lib_a-assert.o)
 .ARM.attributes
                0x00000000       0x2d c:/users/teamuis/appdata/local/arduino15/packages/arduino/tools/arm-none-eabi-gcc/4.8.3-2014q1/bin/../lib/gcc/arm-none-eabi/4.8.3/../../../../arm-none-eabi/lib/armv7-m\libg.a(lib_a-assert.o)
 .debug_frame   0x00000000       0x40 c:/users/teamuis/appdata/local/arduino15/packages/arduino/tools/arm-none-eabi-gcc/4.8.3-2014q1/bin/../lib/gcc/arm-none-eabi/4.8.3/../../../../arm-none-eabi/lib/armv7-m\libg.a(lib_a-assert.o)
 .text          0x00000000        0x0 c:/users/teamuis/appdata/local/arduino15/packages/arduino/tools/arm-none-eabi-gcc/4.8.3-2014q1/bin/../lib/gcc/arm-none-eabi/4.8.3/../../../../arm-none-eabi/lib/armv7-m\libg.a(lib_a-exit.o)
 .data          0x00000000        0x0 c:/users/teamuis/appdata/local/arduino15/packages/arduino/tools/arm-none-eabi-gcc/4.8.3-2014q1/bin/../lib/gcc/arm-none-eabi/4.8.3/../../../../arm-none-eabi/lib/armv7-m\libg.a(lib_a-exit.o)
 .bss           0x00000000        0x0 c:/users/teamuis/appdata/local/arduino15/packages/arduino/tools/arm-none-eabi-gcc/4.8.3-2014q1/bin/../lib/gcc/arm-none-eabi/4.8.3/../../../../arm-none-eabi/lib/armv7-m\libg.a(lib_a-exit.o)
 .text.exit     0x00000000       0x20 c:/users/teamuis/appdata/local/arduino15/packages/arduino/tools/arm-none-eabi-gcc/4.8.3-2014q1/bin/../lib/gcc/arm-none-eabi/4.8.3/../../../../arm-none-eabi/lib/armv7-m\libg.a(lib_a-exit.o)
 .ARM.attributes
                0x00000000       0x2d c:/users/teamuis/appdata/local/arduino15/packages/arduino/tools/arm-none-eabi-gcc/4.8.3-2014q1/bin/../lib/gcc/arm-none-eabi/4.8.3/../../../../arm-none-eabi/lib/armv7-m\libg.a(lib_a-exit.o)
 .debug_frame   0x00000000       0x28 c:/users/teamuis/appdata/local/arduino15/packages/arduino/tools/arm-none-eabi-gcc/4.8.3-2014q1/bin/../lib/gcc/arm-none-eabi/4.8.3/../../../../arm-none-eabi/lib/armv7-m\libg.a(lib_a-exit.o)
 .text          0x00000000        0x0 c:/users/teamuis/appdata/local/arduino15/packages/arduino/tools/arm-none-eabi-gcc/4.8.3-2014q1/bin/../lib/gcc/arm-none-eabi/4.8.3/../../../../arm-none-eabi/lib/armv7-m\libg.a(lib_a-fiprintf.o)
 .data          0x00000000        0x0 c:/users/teamuis/appdata/local/arduino15/packages/arduino/tools/arm-none-eabi-gcc/4.8.3-2014q1/bin/../lib/gcc/arm-none-eabi/4.8.3/../../../../arm-none-eabi/lib/armv7-m\libg.a(lib_a-fiprintf.o)
 .bss           0x00000000        0x0 c:/users/teamuis/appdata/local/arduino15/packages/arduino/tools/arm-none-eabi-gcc/4.8.3-2014q1/bin/../lib/gcc/arm-none-eabi/4.8.3/../../../../arm-none-eabi/lib/armv7-m\libg.a(lib_a-fiprintf.o)
 .text._fiprintf_r
                0x00000000       0x20 c:/users/teamuis/appdata/local/arduino15/packages/arduino/tools/arm-none-eabi-gcc/4.8.3-2014q1/bin/../lib/gcc/arm-none-eabi/4.8.3/../../../../arm-none-eabi/lib/armv7-m\libg.a(lib_a-fiprintf.o)
 .text.fiprintf
                0x00000000       0x28 c:/users/teamuis/appdata/local/arduino15/packages/arduino/tools/arm-none-eabi-gcc/4.8.3-2014q1/bin/../lib/gcc/arm-none-eabi/4.8.3/../../../../arm-none-eabi/lib/armv7-m\libg.a(lib_a-fiprintf.o)
 .ARM.attributes
                0x00000000       0x2d c:/users/teamuis/appdata/local/arduino15/packages/arduino/tools/arm-none-eabi-gcc/4.8.3-2014q1/bin/../lib/gcc/arm-none-eabi/4.8.3/../../../../arm-none-eabi/lib/armv7-m\libg.a(lib_a-fiprintf.o)
 .debug_frame   0x00000000       0x5c c:/users/teamuis/appdata/local/arduino15/packages/arduino/tools/arm-none-eabi-gcc/4.8.3-2014q1/bin/../lib/gcc/arm-none-eabi/4.8.3/../../../../arm-none-eabi/lib/armv7-m\libg.a(lib_a-fiprintf.o)
 .text          0x00000000        0x0 c:/users/teamuis/appdata/local/arduino15/packages/arduino/tools/arm-none-eabi-gcc/4.8.3-2014q1/bin/../lib/gcc/arm-none-eabi/4.8.3/../../../../arm-none-eabi/lib/armv7-m\libg.a(lib_a-impure.o)
 .data          0x00000000        0x0 c:/users/teamuis/appdata/local/arduino15/packages/arduino/tools/arm-none-eabi-gcc/4.8.3-2014q1/bin/../lib/gcc/arm-none-eabi/4.8.3/../../../../arm-none-eabi/lib/armv7-m\libg.a(lib_a-impure.o)
 .bss           0x00000000        0x0 c:/users/teamuis/appdata/local/arduino15/packages/arduino/tools/arm-none-eabi-gcc/4.8.3-2014q1/bin/../lib/gcc/arm-none-eabi/4.8.3/../../../../arm-none-eabi/lib/armv7-m\libg.a(lib_a-impure.o)
 .text          0x00000000        0x0 c:/users/teamuis/appdata/local/arduino15/packages/arduino/tools/arm-none-eabi-gcc/4.8.3-2014q1/bin/../lib/gcc/arm-none-eabi/4.8.3/../../../../arm-none-eabi/lib/armv7-m\libg.a(lib_a-init.o)
 .data          0x00000000        0x0 c:/users/teamuis/appdata/local/arduino15/packages/arduino/tools/arm-none-eabi-gcc/4.8.3-2014q1/bin/../lib/gcc/arm-none-eabi/4.8.3/../../../../arm-none-eabi/lib/armv7-m\libg.a(lib_a-init.o)
 .bss           0x00000000        0x0 c:/users/teamuis/appdata/local/arduino15/packages/arduino/tools/arm-none-eabi-gcc/4.8.3-2014q1/bin/../lib/gcc/arm-none-eabi/4.8.3/../../../../arm-none-eabi/lib/armv7-m\libg.a(lib_a-init.o)
 .text          0x00000000        0x0 c:/users/teamuis/appdata/local/arduino15/packages/arduino/tools/arm-none-eabi-gcc/4.8.3-2014q1/bin/../lib/gcc/arm-none-eabi/4.8.3/../../../../arm-none-eabi/lib/armv7-m\libg.a(lib_a-iprintf.o)
 .data          0x00000000        0x0 c:/users/teamuis/appdata/local/arduino15/packages/arduino/tools/arm-none-eabi-gcc/4.8.3-2014q1/bin/../lib/gcc/arm-none-eabi/4.8.3/../../../../arm-none-eabi/lib/armv7-m\libg.a(lib_a-iprintf.o)
 .bss           0x00000000        0x0 c:/users/teamuis/appdata/local/arduino15/packages/arduino/tools/arm-none-eabi-gcc/4.8.3-2014q1/bin/../lib/gcc/arm-none-eabi/4.8.3/../../../../arm-none-eabi/lib/armv7-m\libg.a(lib_a-iprintf.o)
 .text._iprintf_r
                0x00000000       0x20 c:/users/teamuis/appdata/local/arduino15/packages/arduino/tools/arm-none-eabi-gcc/4.8.3-2014q1/bin/../lib/gcc/arm-none-eabi/4.8.3/../../../../arm-none-eabi/lib/armv7-m\libg.a(lib_a-iprintf.o)
 .text          0x00000000        0x0 c:/users/teamuis/appdata/local/arduino15/packages/arduino/tools/arm-none-eabi-gcc/4.8.3-2014q1/bin/../lib/gcc/arm-none-eabi/4.8.3/../../../../arm-none-eabi/lib/armv7-m\libg.a(lib_a-memset.o)
 .data          0x00000000        0x0 c:/users/teamuis/appdata/local/arduino15/packages/arduino/tools/arm-none-eabi-gcc/4.8.3-2014q1/bin/../lib/gcc/arm-none-eabi/4.8.3/../../../../arm-none-eabi/lib/armv7-m\libg.a(lib_a-memset.o)
 .bss           0x00000000        0x0 c:/users/teamuis/appdata/local/arduino15/packages/arduino/tools/arm-none-eabi-gcc/4.8.3-2014q1/bin/../lib/gcc/arm-none-eabi/4.8.3/../../../../arm-none-eabi/lib/armv7-m\libg.a(lib_a-memset.o)
 .text          0x00000000        0x0 c:/users/teamuis/appdata/local/arduino15/packages/arduino/tools/arm-none-eabi-gcc/4.8.3-2014q1/bin/../lib/gcc/arm-none-eabi/4.8.3/../../../../arm-none-eabi/lib/armv7-m\libg.a(lib_a-strlen.o)
 .data          0x00000000        0x0 c:/users/teamuis/appdata/local/arduino15/packages/arduino/tools/arm-none-eabi-gcc/4.8.3-2014q1/bin/../lib/gcc/arm-none-eabi/4.8.3/../../../../arm-none-eabi/lib/armv7-m\libg.a(lib_a-strlen.o)
 .bss           0x00000000        0x0 c:/users/teamuis/appdata/local/arduino15/packages/arduino/tools/arm-none-eabi-gcc/4.8.3-2014q1/bin/../lib/gcc/arm-none-eabi/4.8.3/../../../../arm-none-eabi/lib/armv7-m\libg.a(lib_a-strlen.o)
 .text          0x00000000        0x0 c:/users/teamuis/appdata/local/arduino15/packages/arduino/tools/arm-none-eabi-gcc/4.8.3-2014q1/bin/../lib/gcc/arm-none-eabi/4.8.3/../../../../arm-none-eabi/lib/armv7-m\libg.a(lib_a-syskill.o)
 .data          0x00000000        0x0 c:/users/teamuis/appdata/local/arduino15/packages/arduino/tools/arm-none-eabi-gcc/4.8.3-2014q1/bin/../lib/gcc/arm-none-eabi/4.8.3/../../../../arm-none-eabi/lib/armv7-m\libg.a(lib_a-syskill.o)
 .bss           0x00000000        0x0 c:/users/teamuis/appdata/local/arduino15/packages/arduino/tools/arm-none-eabi-gcc/4.8.3-2014q1/bin/../lib/gcc/arm-none-eabi/4.8.3/../../../../arm-none-eabi/lib/armv7-m\libg.a(lib_a-syskill.o)
 .text          0x00000000        0x0 c:/users/teamuis/appdata/local/arduino15/packages/arduino/tools/arm-none-eabi-gcc/4.8.3-2014q1/bin/../lib/gcc/arm-none-eabi/4.8.3/../../../../arm-none-eabi/lib/armv7-m\libg.a(lib_a-vfiprintf.o)
 .data          0x00000000        0x0 c:/users/teamuis/appdata/local/arduino15/packages/arduino/tools/arm-none-eabi-gcc/4.8.3-2014q1/bin/../lib/gcc/arm-none-eabi/4.8.3/../../../../arm-none-eabi/lib/armv7-m\libg.a(lib_a-vfiprintf.o)
 .bss           0x00000000        0x0 c:/users/teamuis/appdata/local/arduino15/packages/arduino/tools/arm-none-eabi-gcc/4.8.3-2014q1/bin/../lib/gcc/arm-none-eabi/4.8.3/../../../../arm-none-eabi/lib/armv7-m\libg.a(lib_a-vfiprintf.o)
 .text.__sprint_r
                0x00000000       0x18 c:/users/teamuis/appdata/local/arduino15/packages/arduino/tools/arm-none-eabi-gcc/4.8.3-2014q1/bin/../lib/gcc/arm-none-eabi/4.8.3/../../../../arm-none-eabi/lib/armv7-m\libg.a(lib_a-vfiprintf.o)
 .text.vfiprintf
                0x00000000       0x18 c:/users/teamuis/appdata/local/arduino15/packages/arduino/tools/arm-none-eabi-gcc/4.8.3-2014q1/bin/../lib/gcc/arm-none-eabi/4.8.3/../../../../arm-none-eabi/lib/armv7-m\libg.a(lib_a-vfiprintf.o)
 .text          0x00000000        0x0 c:/users/teamuis/appdata/local/arduino15/packages/arduino/tools/arm-none-eabi-gcc/4.8.3-2014q1/bin/../lib/gcc/arm-none-eabi/4.8.3/../../../../arm-none-eabi/lib/armv7-m\libg.a(lib_a-wsetup.o)
 .data          0x00000000        0x0 c:/users/teamuis/appdata/local/arduino15/packages/arduino/tools/arm-none-eabi-gcc/4.8.3-2014q1/bin/../lib/gcc/arm-none-eabi/4.8.3/../../../../arm-none-eabi/lib/armv7-m\libg.a(lib_a-wsetup.o)
 .bss           0x00000000        0x0 c:/users/teamuis/appdata/local/arduino15/packages/arduino/tools/arm-none-eabi-gcc/4.8.3-2014q1/bin/../lib/gcc/arm-none-eabi/4.8.3/../../../../arm-none-eabi/lib/armv7-m\libg.a(lib_a-wsetup.o)
 .text          0x00000000        0x0 c:/users/teamuis/appdata/local/arduino15/packages/arduino/tools/arm-none-eabi-gcc/4.8.3-2014q1/bin/../lib/gcc/arm-none-eabi/4.8.3/../../../../arm-none-eabi/lib/armv7-m\libg.a(lib_a-__call_atexit.o)
 .data          0x00000000        0x0 c:/users/teamuis/appdata/local/arduino15/packages/arduino/tools/arm-none-eabi-gcc/4.8.3-2014q1/bin/../lib/gcc/arm-none-eabi/4.8.3/../../../../arm-none-eabi/lib/armv7-m\libg.a(lib_a-__call_atexit.o)
 .bss           0x00000000        0x0 c:/users/teamuis/appdata/local/arduino15/packages/arduino/tools/arm-none-eabi-gcc/4.8.3-2014q1/bin/../lib/gcc/arm-none-eabi/4.8.3/../../../../arm-none-eabi/lib/armv7-m\libg.a(lib_a-__call_atexit.o)
 .text.__call_exitprocs
                0x00000000       0xf0 c:/users/teamuis/appdata/local/arduino15/packages/arduino/tools/arm-none-eabi-gcc/4.8.3-2014q1/bin/../lib/gcc/arm-none-eabi/4.8.3/../../../../arm-none-eabi/lib/armv7-m\libg.a(lib_a-__call_atexit.o)
 .text          0x00000000        0x0 c:/users/teamuis/appdata/local/arduino15/packages/arduino/tools/arm-none-eabi-gcc/4.8.3-2014q1/bin/../lib/gcc/arm-none-eabi/4.8.3/../../../../arm-none-eabi/lib/armv7-m\libg.a(lib_a-abort.o)
 .data          0x00000000        0x0 c:/users/teamuis/appdata/local/arduino15/packages/arduino/tools/arm-none-eabi-gcc/4.8.3-2014q1/bin/../lib/gcc/arm-none-eabi/4.8.3/../../../../arm-none-eabi/lib/armv7-m\libg.a(lib_a-abort.o)
 .bss           0x00000000        0x0 c:/users/teamuis/appdata/local/arduino15/packages/arduino/tools/arm-none-eabi-gcc/4.8.3-2014q1/bin/../lib/gcc/arm-none-eabi/4.8.3/../../../../arm-none-eabi/lib/armv7-m\libg.a(lib_a-abort.o)
 .text.abort    0x00000000       0x10 c:/users/teamuis/appdata/local/arduino15/packages/arduino/tools/arm-none-eabi-gcc/4.8.3-2014q1/bin/../lib/gcc/arm-none-eabi/4.8.3/../../../../arm-none-eabi/lib/armv7-m\libg.a(lib_a-abort.o)
 .ARM.attributes
                0x00000000       0x2d c:/users/teamuis/appdata/local/arduino15/packages/arduino/tools/arm-none-eabi-gcc/4.8.3-2014q1/bin/../lib/gcc/arm-none-eabi/4.8.3/../../../../arm-none-eabi/lib/armv7-m\libg.a(lib_a-abort.o)
 .debug_frame   0x00000000       0x28 c:/users/teamuis/appdata/local/arduino15/packages/arduino/tools/arm-none-eabi-gcc/4.8.3-2014q1/bin/../lib/gcc/arm-none-eabi/4.8.3/../../../../arm-none-eabi/lib/armv7-m\libg.a(lib_a-abort.o)
 .text          0x00000000        0x0 c:/users/teamuis/appdata/local/arduino15/packages/arduino/tools/arm-none-eabi-gcc/4.8.3-2014q1/bin/../lib/gcc/arm-none-eabi/4.8.3/../../../../arm-none-eabi/lib/armv7-m\libg.a(lib_a-atexit.o)
 .data          0x00000000        0x0 c:/users/teamuis/appdata/local/arduino15/packages/arduino/tools/arm-none-eabi-gcc/4.8.3-2014q1/bin/../lib/gcc/arm-none-eabi/4.8.3/../../../../arm-none-eabi/lib/armv7-m\libg.a(lib_a-atexit.o)
 .bss           0x00000000        0x0 c:/users/teamuis/appdata/local/arduino15/packages/arduino/tools/arm-none-eabi-gcc/4.8.3-2014q1/bin/../lib/gcc/arm-none-eabi/4.8.3/../../../../arm-none-eabi/lib/armv7-m\libg.a(lib_a-atexit.o)
 .text          0x00000000        0x0 c:/users/teamuis/appdata/local/arduino15/packages/arduino/tools/arm-none-eabi-gcc/4.8.3-2014q1/bin/../lib/gcc/arm-none-eabi/4.8.3/../../../../arm-none-eabi/lib/armv7-m\libg.a(lib_a-fflush.o)
 .data          0x00000000        0x0 c:/users/teamuis/appdata/local/arduino15/packages/arduino/tools/arm-none-eabi-gcc/4.8.3-2014q1/bin/../lib/gcc/arm-none-eabi/4.8.3/../../../../arm-none-eabi/lib/armv7-m\libg.a(lib_a-fflush.o)
 .bss           0x00000000        0x0 c:/users/teamuis/appdata/local/arduino15/packages/arduino/tools/arm-none-eabi-gcc/4.8.3-2014q1/bin/../lib/gcc/arm-none-eabi/4.8.3/../../../../arm-none-eabi/lib/armv7-m\libg.a(lib_a-fflush.o)
 .text.fflush   0x00000000       0x24 c:/users/teamuis/appdata/local/arduino15/packages/arduino/tools/arm-none-eabi-gcc/4.8.3-2014q1/bin/../lib/gcc/arm-none-eabi/4.8.3/../../../../arm-none-eabi/lib/armv7-m\libg.a(lib_a-fflush.o)
 .text          0x00000000        0x0 c:/users/teamuis/appdata/local/arduino15/packages/arduino/tools/arm-none-eabi-gcc/4.8.3-2014q1/bin/../lib/gcc/arm-none-eabi/4.8.3/../../../../arm-none-eabi/lib/armv7-m\libg.a(lib_a-findfp.o)
 .data          0x00000000        0x0 c:/users/teamuis/appdata/local/arduino15/packages/arduino/tools/arm-none-eabi-gcc/4.8.3-2014q1/bin/../lib/gcc/arm-none-eabi/4.8.3/../../../../arm-none-eabi/lib/armv7-m\libg.a(lib_a-findfp.o)
 .bss           0x00000000        0x0 c:/users/teamuis/appdata/local/arduino15/packages/arduino/tools/arm-none-eabi-gcc/4.8.3-2014q1/bin/../lib/gcc/arm-none-eabi/4.8.3/../../../../arm-none-eabi/lib/armv7-m\libg.a(lib_a-findfp.o)
 .text.__fp_lock
                0x00000000        0x4 c:/users/teamuis/appdata/local/arduino15/packages/arduino/tools/arm-none-eabi-gcc/4.8.3-2014q1/bin/../lib/gcc/arm-none-eabi/4.8.3/../../../../arm-none-eabi/lib/armv7-m\libg.a(lib_a-findfp.o)
 .text.__fp_unlock
                0x00000000        0x4 c:/users/teamuis/appdata/local/arduino15/packages/arduino/tools/arm-none-eabi-gcc/4.8.3-2014q1/bin/../lib/gcc/arm-none-eabi/4.8.3/../../../../arm-none-eabi/lib/armv7-m\libg.a(lib_a-findfp.o)
 .text.__sfmoreglue
                0x00000000       0x30 c:/users/teamuis/appdata/local/arduino15/packages/arduino/tools/arm-none-eabi-gcc/4.8.3-2014q1/bin/../lib/gcc/arm-none-eabi/4.8.3/../../../../arm-none-eabi/lib/armv7-m\libg.a(lib_a-findfp.o)
 .text._cleanup
                0x00000000       0x14 c:/users/teamuis/appdata/local/arduino15/packages/arduino/tools/arm-none-eabi-gcc/4.8.3-2014q1/bin/../lib/gcc/arm-none-eabi/4.8.3/../../../../arm-none-eabi/lib/armv7-m\libg.a(lib_a-findfp.o)
 .text.__sfp    0x00000000       0x8c c:/users/teamuis/appdata/local/arduino15/packages/arduino/tools/arm-none-eabi-gcc/4.8.3-2014q1/bin/../lib/gcc/arm-none-eabi/4.8.3/../../../../arm-none-eabi/lib/armv7-m\libg.a(lib_a-findfp.o)
 .text.__sinit_lock_acquire
                0x00000000        0x4 c:/users/teamuis/appdata/local/arduino15/packages/arduino/tools/arm-none-eabi-gcc/4.8.3-2014q1/bin/../lib/gcc/arm-none-eabi/4.8.3/../../../../arm-none-eabi/lib/armv7-m\libg.a(lib_a-findfp.o)
 .text.__sinit_lock_release
                0x00000000        0x4 c:/users/teamuis/appdata/local/arduino15/packages/arduino/tools/arm-none-eabi-gcc/4.8.3-2014q1/bin/../lib/gcc/arm-none-eabi/4.8.3/../../../../arm-none-eabi/lib/armv7-m\libg.a(lib_a-findfp.o)
 .text.__fp_lock_all
                0x00000000       0x14 c:/users/teamuis/appdata/local/arduino15/packages/arduino/tools/arm-none-eabi-gcc/4.8.3-2014q1/bin/../lib/gcc/arm-none-eabi/4.8.3/../../../../arm-none-eabi/lib/armv7-m\libg.a(lib_a-findfp.o)
 .text.__fp_unlock_all
                0x00000000       0x14 c:/users/teamuis/appdata/local/arduino15/packages/arduino/tools/arm-none-eabi-gcc/4.8.3-2014q1/bin/../lib/gcc/arm-none-eabi/4.8.3/../../../../arm-none-eabi/lib/armv7-m\libg.a(lib_a-findfp.o)
 .text          0x00000000        0x0 c:/users/teamuis/appdata/local/arduino15/packages/arduino/tools/arm-none-eabi-gcc/4.8.3-2014q1/bin/../lib/gcc/arm-none-eabi/4.8.3/../../../../arm-none-eabi/lib/armv7-m\libg.a(lib_a-fini.o)
 .data          0x00000000        0x0 c:/users/teamuis/appdata/local/arduino15/packages/arduino/tools/arm-none-eabi-gcc/4.8.3-2014q1/bin/../lib/gcc/arm-none-eabi/4.8.3/../../../../arm-none-eabi/lib/armv7-m\libg.a(lib_a-fini.o)
 .bss           0x00000000        0x0 c:/users/teamuis/appdata/local/arduino15/packages/arduino/tools/arm-none-eabi-gcc/4.8.3-2014q1/bin/../lib/gcc/arm-none-eabi/4.8.3/../../../../arm-none-eabi/lib/armv7-m\libg.a(lib_a-fini.o)
 .text          0x00000000        0x0 c:/users/teamuis/appdata/local/arduino15/packages/arduino/tools/arm-none-eabi-gcc/4.8.3-2014q1/bin/../lib/gcc/arm-none-eabi/4.8.3/../../../../arm-none-eabi/lib/armv7-m\libg.a(lib_a-fputwc.o)
 .data          0x00000000        0x0 c:/users/teamuis/appdata/local/arduino15/packages/arduino/tools/arm-none-eabi-gcc/4.8.3-2014q1/bin/../lib/gcc/arm-none-eabi/4.8.3/../../../../arm-none-eabi/lib/armv7-m\libg.a(lib_a-fputwc.o)
 .bss           0x00000000        0x0 c:/users/teamuis/appdata/local/arduino15/packages/arduino/tools/arm-none-eabi-gcc/4.8.3-2014q1/bin/../lib/gcc/arm-none-eabi/4.8.3/../../../../arm-none-eabi/lib/armv7-m\libg.a(lib_a-fputwc.o)
 .text.fputwc   0x00000000       0x28 c:/users/teamuis/appdata/local/arduino15/packages/arduino/tools/arm-none-eabi-gcc/4.8.3-2014q1/bin/../lib/gcc/arm-none-eabi/4.8.3/../../../../arm-none-eabi/lib/armv7-m\libg.a(lib_a-fputwc.o)
 .text          0x00000000        0x0 c:/users/teamuis/appdata/local/arduino15/packages/arduino/tools/arm-none-eabi-gcc/4.8.3-2014q1/bin/../lib/gcc/arm-none-eabi/4.8.3/../../../../arm-none-eabi/lib/armv7-m\libg.a(lib_a-freer.o)
 .data          0x00000000        0x0 c:/users/teamuis/appdata/local/arduino15/packages/arduino/tools/arm-none-eabi-gcc/4.8.3-2014q1/bin/../lib/gcc/arm-none-eabi/4.8.3/../../../../arm-none-eabi/lib/armv7-m\libg.a(lib_a-freer.o)
 .bss           0x00000000        0x0 c:/users/teamuis/appdata/local/arduino15/packages/arduino/tools/arm-none-eabi-gcc/4.8.3-2014q1/bin/../lib/gcc/arm-none-eabi/4.8.3/../../../../arm-none-eabi/lib/armv7-m\libg.a(lib_a-freer.o)
 .text          0x00000000        0x0 c:/users/teamuis/appdata/local/arduino15/packages/arduino/tools/arm-none-eabi-gcc/4.8.3-2014q1/bin/../lib/gcc/arm-none-eabi/4.8.3/../../../../arm-none-eabi/lib/armv7-m\libg.a(lib_a-fvwrite.o)
 .data          0x00000000        0x0 c:/users/teamuis/appdata/local/arduino15/packages/arduino/tools/arm-none-eabi-gcc/4.8.3-2014q1/bin/../lib/gcc/arm-none-eabi/4.8.3/../../../../arm-none-eabi/lib/armv7-m\libg.a(lib_a-fvwrite.o)
 .bss           0x00000000        0x0 c:/users/teamuis/appdata/local/arduino15/packages/arduino/tools/arm-none-eabi-gcc/4.8.3-2014q1/bin/../lib/gcc/arm-none-eabi/4.8.3/../../../../arm-none-eabi/lib/armv7-m\libg.a(lib_a-fvwrite.o)
 .text          0x00000000        0x0 c:/users/teamuis/appdata/local/arduino15/packages/arduino/tools/arm-none-eabi-gcc/4.8.3-2014q1/bin/../lib/gcc/arm-none-eabi/4.8.3/../../../../arm-none-eabi/lib/armv7-m\libg.a(lib_a-fwalk.o)
 .data          0x00000000        0x0 c:/users/teamuis/appdata/local/arduino15/packages/arduino/tools/arm-none-eabi-gcc/4.8.3-2014q1/bin/../lib/gcc/arm-none-eabi/4.8.3/../../../../arm-none-eabi/lib/armv7-m\libg.a(lib_a-fwalk.o)
 .bss           0x00000000        0x0 c:/users/teamuis/appdata/local/arduino15/packages/arduino/tools/arm-none-eabi-gcc/4.8.3-2014q1/bin/../lib/gcc/arm-none-eabi/4.8.3/../../../../arm-none-eabi/lib/armv7-m\libg.a(lib_a-fwalk.o)
 .text._fwalk_reent
                0x00000000       0x4c c:/users/teamuis/appdata/local/arduino15/packages/arduino/tools/arm-none-eabi-gcc/4.8.3-2014q1/bin/../lib/gcc/arm-none-eabi/4.8.3/../../../../arm-none-eabi/lib/armv7-m\libg.a(lib_a-fwalk.o)
 .text          0x00000000        0x0 c:/users/teamuis/appdata/local/arduino15/packages/arduino/tools/arm-none-eabi-gcc/4.8.3-2014q1/bin/../lib/gcc/arm-none-eabi/4.8.3/../../../../arm-none-eabi/lib/armv7-m\libg.a(lib_a-locale.o)
 .data          0x00000000        0x0 c:/users/teamuis/appdata/local/arduino15/packages/arduino/tools/arm-none-eabi-gcc/4.8.3-2014q1/bin/../lib/gcc/arm-none-eabi/4.8.3/../../../../arm-none-eabi/lib/armv7-m\libg.a(lib_a-locale.o)
 .bss           0x00000000        0x0 c:/users/teamuis/appdata/local/arduino15/packages/arduino/tools/arm-none-eabi-gcc/4.8.3-2014q1/bin/../lib/gcc/arm-none-eabi/4.8.3/../../../../arm-none-eabi/lib/armv7-m\libg.a(lib_a-locale.o)
 .text._setlocale_r
                0x00000000       0x40 c:/users/teamuis/appdata/local/arduino15/packages/arduino/tools/arm-none-eabi-gcc/4.8.3-2014q1/bin/../lib/gcc/arm-none-eabi/4.8.3/../../../../arm-none-eabi/lib/armv7-m\libg.a(lib_a-locale.o)
 .text.__locale_msgcharset
                0x00000000        0x8 c:/users/teamuis/appdata/local/arduino15/packages/arduino/tools/arm-none-eabi-gcc/4.8.3-2014q1/bin/../lib/gcc/arm-none-eabi/4.8.3/../../../../arm-none-eabi/lib/armv7-m\libg.a(lib_a-locale.o)
 .text.__locale_cjk_lang
                0x00000000        0x4 c:/users/teamuis/appdata/local/arduino15/packages/arduino/tools/arm-none-eabi-gcc/4.8.3-2014q1/bin/../lib/gcc/arm-none-eabi/4.8.3/../../../../arm-none-eabi/lib/armv7-m\libg.a(lib_a-locale.o)
 .text._localeconv_r
                0x00000000        0x8 c:/users/teamuis/appdata/local/arduino15/packages/arduino/tools/arm-none-eabi-gcc/4.8.3-2014q1/bin/../lib/gcc/arm-none-eabi/4.8.3/../../../../arm-none-eabi/lib/armv7-m\libg.a(lib_a-locale.o)
 .text.setlocale
                0x00000000       0x10 c:/users/teamuis/appdata/local/arduino15/packages/arduino/tools/arm-none-eabi-gcc/4.8.3-2014q1/bin/../lib/gcc/arm-none-eabi/4.8.3/../../../../arm-none-eabi/lib/armv7-m\libg.a(lib_a-locale.o)
 .text.localeconv
                0x00000000        0x8 c:/users/teamuis/appdata/local/arduino15/packages/arduino/tools/arm-none-eabi-gcc/4.8.3-2014q1/bin/../lib/gcc/arm-none-eabi/4.8.3/../../../../arm-none-eabi/lib/armv7-m\libg.a(lib_a-locale.o)
 .data.lc_message_charset
                0x00000000       0x20 c:/users/teamuis/appdata/local/arduino15/packages/arduino/tools/arm-none-eabi-gcc/4.8.3-2014q1/bin/../lib/gcc/arm-none-eabi/4.8.3/../../../../arm-none-eabi/lib/armv7-m\libg.a(lib_a-locale.o)
 .bss._PathLocale
                0x00000000        0x4 c:/users/teamuis/appdata/local/arduino15/packages/arduino/tools/arm-none-eabi-gcc/4.8.3-2014q1/bin/../lib/gcc/arm-none-eabi/4.8.3/../../../../arm-none-eabi/lib/armv7-m\libg.a(lib_a-locale.o)
 .bss.__nlocale_changed
                0x00000000        0x4 c:/users/teamuis/appdata/local/arduino15/packages/arduino/tools/arm-none-eabi-gcc/4.8.3-2014q1/bin/../lib/gcc/arm-none-eabi/4.8.3/../../../../arm-none-eabi/lib/armv7-m\libg.a(lib_a-locale.o)
 .bss.__mlocale_changed
                0x00000000        0x4 c:/users/teamuis/appdata/local/arduino15/packages/arduino/tools/arm-none-eabi-gcc/4.8.3-2014q1/bin/../lib/gcc/arm-none-eabi/4.8.3/../../../../arm-none-eabi/lib/armv7-m\libg.a(lib_a-locale.o)
 .data.lconv    0x00000000       0x38 c:/users/teamuis/appdata/local/arduino15/packages/arduino/tools/arm-none-eabi-gcc/4.8.3-2014q1/bin/../lib/gcc/arm-none-eabi/4.8.3/../../../../arm-none-eabi/lib/armv7-m\libg.a(lib_a-locale.o)
 .rodata.str1.4
                0x00000000       0x14 c:/users/teamuis/appdata/local/arduino15/packages/arduino/tools/arm-none-eabi-gcc/4.8.3-2014q1/bin/../lib/gcc/arm-none-eabi/4.8.3/../../../../arm-none-eabi/lib/armv7-m\libg.a(lib_a-locale.o)
 .text          0x00000000        0x0 c:/users/teamuis/appdata/local/arduino15/packages/arduino/tools/arm-none-eabi-gcc/4.8.3-2014q1/bin/../lib/gcc/arm-none-eabi/4.8.3/../../../../arm-none-eabi/lib/armv7-m\libg.a(lib_a-makebuf.o)
 .data          0x00000000        0x0 c:/users/teamuis/appdata/local/arduino15/packages/arduino/tools/arm-none-eabi-gcc/4.8.3-2014q1/bin/../lib/gcc/arm-none-eabi/4.8.3/../../../../arm-none-eabi/lib/armv7-m\libg.a(lib_a-makebuf.o)
 .bss           0x00000000        0x0 c:/users/teamuis/appdata/local/arduino15/packages/arduino/tools/arm-none-eabi-gcc/4.8.3-2014q1/bin/../lib/gcc/arm-none-eabi/4.8.3/../../../../arm-none-eabi/lib/armv7-m\libg.a(lib_a-makebuf.o)
 .text          0x00000000        0x0 c:/users/teamuis/appdata/local/arduino15/packages/arduino/tools/arm-none-eabi-gcc/4.8.3-2014q1/bin/../lib/gcc/arm-none-eabi/4.8.3/../../../../arm-none-eabi/lib/armv7-m\libg.a(lib_a-mallocr.o)
 .data          0x00000000        0x0 c:/users/teamuis/appdata/local/arduino15/packages/arduino/tools/arm-none-eabi-gcc/4.8.3-2014q1/bin/../lib/gcc/arm-none-eabi/4.8.3/../../../../arm-none-eabi/lib/armv7-m\libg.a(lib_a-mallocr.o)
 .bss           0x00000000        0x0 c:/users/teamuis/appdata/local/arduino15/packages/arduino/tools/arm-none-eabi-gcc/4.8.3-2014q1/bin/../lib/gcc/arm-none-eabi/4.8.3/../../../../arm-none-eabi/lib/armv7-m\libg.a(lib_a-mallocr.o)
 .text          0x00000000        0x0 c:/users/teamuis/appdata/local/arduino15/packages/arduino/tools/arm-none-eabi-gcc/4.8.3-2014q1/bin/../lib/gcc/arm-none-eabi/4.8.3/../../../../arm-none-eabi/lib/armv7-m\libg.a(lib_a-memchr-stub.o)
 .data          0x00000000        0x0 c:/users/teamuis/appdata/local/arduino15/packages/arduino/tools/arm-none-eabi-gcc/4.8.3-2014q1/bin/../lib/gcc/arm-none-eabi/4.8.3/../../../../arm-none-eabi/lib/armv7-m\libg.a(lib_a-memchr-stub.o)
 .bss           0x00000000        0x0 c:/users/teamuis/appdata/local/arduino15/packages/arduino/tools/arm-none-eabi-gcc/4.8.3-2014q1/bin/../lib/gcc/arm-none-eabi/4.8.3/../../../../arm-none-eabi/lib/armv7-m\libg.a(lib_a-memchr-stub.o)
 .data          0x00000000        0x0 c:/users/teamuis/appdata/local/arduino15/packages/arduino/tools/arm-none-eabi-gcc/4.8.3-2014q1/bin/../lib/gcc/arm-none-eabi/4.8.3/../../../../arm-none-eabi/lib/armv7-m\libg.a(lib_a-memcpy.o)
 .bss           0x00000000        0x0 c:/users/teamuis/appdata/local/arduino15/packages/arduino/tools/arm-none-eabi-gcc/4.8.3-2014q1/bin/../lib/gcc/arm-none-eabi/4.8.3/../../../../arm-none-eabi/lib/armv7-m\libg.a(lib_a-memcpy.o)
 .text          0x00000000        0x0 c:/users/teamuis/appdata/local/arduino15/packages/arduino/tools/arm-none-eabi-gcc/4.8.3-2014q1/bin/../lib/gcc/arm-none-eabi/4.8.3/../../../../arm-none-eabi/lib/armv7-m\libg.a(lib_a-memmove.o)
 .data          0x00000000        0x0 c:/users/teamuis/appdata/local/arduino15/packages/arduino/tools/arm-none-eabi-gcc/4.8.3-2014q1/bin/../lib/gcc/arm-none-eabi/4.8.3/../../../../arm-none-eabi/lib/armv7-m\libg.a(lib_a-memmove.o)
 .bss           0x00000000        0x0 c:/users/teamuis/appdata/local/arduino15/packages/arduino/tools/arm-none-eabi-gcc/4.8.3-2014q1/bin/../lib/gcc/arm-none-eabi/4.8.3/../../../../arm-none-eabi/lib/armv7-m\libg.a(lib_a-memmove.o)
 .text          0x00000000        0x0 c:/users/teamuis/appdata/local/arduino15/packages/arduino/tools/arm-none-eabi-gcc/4.8.3-2014q1/bin/../lib/gcc/arm-none-eabi/4.8.3/../../../../arm-none-eabi/lib/armv7-m\libg.a(lib_a-mlock.o)
 .data          0x00000000        0x0 c:/users/teamuis/appdata/local/arduino15/packages/arduino/tools/arm-none-eabi-gcc/4.8.3-2014q1/bin/../lib/gcc/arm-none-eabi/4.8.3/../../../../arm-none-eabi/lib/armv7-m\libg.a(lib_a-mlock.o)
 .bss           0x00000000        0x0 c:/users/teamuis/appdata/local/arduino15/packages/arduino/tools/arm-none-eabi-gcc/4.8.3-2014q1/bin/../lib/gcc/arm-none-eabi/4.8.3/../../../../arm-none-eabi/lib/armv7-m\libg.a(lib_a-mlock.o)
 .text          0x00000000        0x0 c:/users/teamuis/appdata/local/arduino15/packages/arduino/tools/arm-none-eabi-gcc/4.8.3-2014q1/bin/../lib/gcc/arm-none-eabi/4.8.3/../../../../arm-none-eabi/lib/armv7-m\libg.a(lib_a-reallocr.o)
 .data          0x00000000        0x0 c:/users/teamuis/appdata/local/arduino15/packages/arduino/tools/arm-none-eabi-gcc/4.8.3-2014q1/bin/../lib/gcc/arm-none-eabi/4.8.3/../../../../arm-none-eabi/lib/armv7-m\libg.a(lib_a-reallocr.o)
 .bss           0x00000000        0x0 c:/users/teamuis/appdata/local/arduino15/packages/arduino/tools/arm-none-eabi-gcc/4.8.3-2014q1/bin/../lib/gcc/arm-none-eabi/4.8.3/../../../../arm-none-eabi/lib/armv7-m\libg.a(lib_a-reallocr.o)
 .text          0x00000000        0x0 c:/users/teamuis/appdata/local/arduino15/packages/arduino/tools/arm-none-eabi-gcc/4.8.3-2014q1/bin/../lib/gcc/arm-none-eabi/4.8.3/../../../../arm-none-eabi/lib/armv7-m\libg.a(lib_a-sbrkr.o)
 .data          0x00000000        0x0 c:/users/teamuis/appdata/local/arduino15/packages/arduino/tools/arm-none-eabi-gcc/4.8.3-2014q1/bin/../lib/gcc/arm-none-eabi/4.8.3/../../../../arm-none-eabi/lib/armv7-m\libg.a(lib_a-sbrkr.o)
 .bss           0x00000000        0x0 c:/users/teamuis/appdata/local/arduino15/packages/arduino/tools/arm-none-eabi-gcc/4.8.3-2014q1/bin/../lib/gcc/arm-none-eabi/4.8.3/../../../../arm-none-eabi/lib/armv7-m\libg.a(lib_a-sbrkr.o)
 .text          0x00000000        0x0 c:/users/teamuis/appdata/local/arduino15/packages/arduino/tools/arm-none-eabi-gcc/4.8.3-2014q1/bin/../lib/gcc/arm-none-eabi/4.8.3/../../../../arm-none-eabi/lib/armv7-m\libg.a(lib_a-signal.o)
 .data          0x00000000        0x0 c:/users/teamuis/appdata/local/arduino15/packages/arduino/tools/arm-none-eabi-gcc/4.8.3-2014q1/bin/../lib/gcc/arm-none-eabi/4.8.3/../../../../arm-none-eabi/lib/armv7-m\libg.a(lib_a-signal.o)
 .bss           0x00000000        0x0 c:/users/teamuis/appdata/local/arduino15/packages/arduino/tools/arm-none-eabi-gcc/4.8.3-2014q1/bin/../lib/gcc/arm-none-eabi/4.8.3/../../../../arm-none-eabi/lib/armv7-m\libg.a(lib_a-signal.o)
 .text._init_signal_r
                0x00000000       0x38 c:/users/teamuis/appdata/local/arduino15/packages/arduino/tools/arm-none-eabi-gcc/4.8.3-2014q1/bin/../lib/gcc/arm-none-eabi/4.8.3/../../../../arm-none-eabi/lib/armv7-m\libg.a(lib_a-signal.o)
 .text._signal_r
                0x00000000       0x44 c:/users/teamuis/appdata/local/arduino15/packages/arduino/tools/arm-none-eabi-gcc/4.8.3-2014q1/bin/../lib/gcc/arm-none-eabi/4.8.3/../../../../arm-none-eabi/lib/armv7-m\libg.a(lib_a-signal.o)
 .text._raise_r
                0x00000000       0x58 c:/users/teamuis/appdata/local/arduino15/packages/arduino/tools/arm-none-eabi-gcc/4.8.3-2014q1/bin/../lib/gcc/arm-none-eabi/4.8.3/../../../../arm-none-eabi/lib/armv7-m\libg.a(lib_a-signal.o)
 .text.__sigtramp_r
                0x00000000       0x58 c:/users/teamuis/appdata/local/arduino15/packages/arduino/tools/arm-none-eabi-gcc/4.8.3-2014q1/bin/../lib/gcc/arm-none-eabi/4.8.3/../../../../arm-none-eabi/lib/armv7-m\libg.a(lib_a-signal.o)
 .text.raise    0x00000000       0x10 c:/users/teamuis/appdata/local/arduino15/packages/arduino/tools/arm-none-eabi-gcc/4.8.3-2014q1/bin/../lib/gcc/arm-none-eabi/4.8.3/../../../../arm-none-eabi/lib/armv7-m\libg.a(lib_a-signal.o)
 .text.signal   0x00000000       0x10 c:/users/teamuis/appdata/local/arduino15/packages/arduino/tools/arm-none-eabi-gcc/4.8.3-2014q1/bin/../lib/gcc/arm-none-eabi/4.8.3/../../../../arm-none-eabi/lib/armv7-m\libg.a(lib_a-signal.o)
 .text._init_signal
                0x00000000        0xc c:/users/teamuis/appdata/local/arduino15/packages/arduino/tools/arm-none-eabi-gcc/4.8.3-2014q1/bin/../lib/gcc/arm-none-eabi/4.8.3/../../../../arm-none-eabi/lib/armv7-m\libg.a(lib_a-signal.o)
 .text.__sigtramp
                0x00000000       0x10 c:/users/teamuis/appdata/local/arduino15/packages/arduino/tools/arm-none-eabi-gcc/4.8.3-2014q1/bin/../lib/gcc/arm-none-eabi/4.8.3/../../../../arm-none-eabi/lib/armv7-m\libg.a(lib_a-signal.o)
 .ARM.attributes
                0x00000000       0x2d c:/users/teamuis/appdata/local/arduino15/packages/arduino/tools/arm-none-eabi-gcc/4.8.3-2014q1/bin/../lib/gcc/arm-none-eabi/4.8.3/../../../../arm-none-eabi/lib/armv7-m\libg.a(lib_a-signal.o)
 .debug_frame   0x00000000       0xc0 c:/users/teamuis/appdata/local/arduino15/packages/arduino/tools/arm-none-eabi-gcc/4.8.3-2014q1/bin/../lib/gcc/arm-none-eabi/4.8.3/../../../../arm-none-eabi/lib/armv7-m\libg.a(lib_a-signal.o)
 .text          0x00000000        0x0 c:/users/teamuis/appdata/local/arduino15/packages/arduino/tools/arm-none-eabi-gcc/4.8.3-2014q1/bin/../lib/gcc/arm-none-eabi/4.8.3/../../../../arm-none-eabi/lib/armv7-m\libg.a(lib_a-signalr.o)
 .data          0x00000000        0x0 c:/users/teamuis/appdata/local/arduino15/packages/arduino/tools/arm-none-eabi-gcc/4.8.3-2014q1/bin/../lib/gcc/arm-none-eabi/4.8.3/../../../../arm-none-eabi/lib/armv7-m\libg.a(lib_a-signalr.o)
 .bss           0x00000000        0x0 c:/users/teamuis/appdata/local/arduino15/packages/arduino/tools/arm-none-eabi-gcc/4.8.3-2014q1/bin/../lib/gcc/arm-none-eabi/4.8.3/../../../../arm-none-eabi/lib/armv7-m\libg.a(lib_a-signalr.o)
 .text._getpid_r
                0x00000000        0x4 c:/users/teamuis/appdata/local/arduino15/packages/arduino/tools/arm-none-eabi-gcc/4.8.3-2014q1/bin/../lib/gcc/arm-none-eabi/4.8.3/../../../../arm-none-eabi/lib/armv7-m\libg.a(lib_a-signalr.o)
 .text          0x00000000        0x0 c:/users/teamuis/appdata/local/arduino15/packages/arduino/tools/arm-none-eabi-gcc/4.8.3-2014q1/bin/../lib/gcc/arm-none-eabi/4.8.3/../../../../arm-none-eabi/lib/armv7-m\libg.a(lib_a-stdio.o)
 .data          0x00000000        0x0 c:/users/teamuis/appdata/local/arduino15/packages/arduino/tools/arm-none-eabi-gcc/4.8.3-2014q1/bin/../lib/gcc/arm-none-eabi/4.8.3/../../../../arm-none-eabi/lib/armv7-m\libg.a(lib_a-stdio.o)
 .bss           0x00000000        0x0 c:/users/teamuis/appdata/local/arduino15/packages/arduino/tools/arm-none-eabi-gcc/4.8.3-2014q1/bin/../lib/gcc/arm-none-eabi/4.8.3/../../../../arm-none-eabi/lib/armv7-m\libg.a(lib_a-stdio.o)
 .text.__seofread
                0x00000000        0x4 c:/users/teamuis/appdata/local/arduino15/packages/arduino/tools/arm-none-eabi-gcc/4.8.3-2014q1/bin/../lib/gcc/arm-none-eabi/4.8.3/../../../../arm-none-eabi/lib/armv7-m\libg.a(lib_a-stdio.o)
 .text          0x00000000      0x23c c:/users/teamuis/appdata/local/arduino15/packages/arduino/tools/arm-none-eabi-gcc/4.8.3-2014q1/bin/../lib/gcc/arm-none-eabi/4.8.3/../../../../arm-none-eabi/lib/armv7-m\libg.a(lib_a-strcmp.o)
 .data          0x00000000        0x0 c:/users/teamuis/appdata/local/arduino15/packages/arduino/tools/arm-none-eabi-gcc/4.8.3-2014q1/bin/../lib/gcc/arm-none-eabi/4.8.3/../../../../arm-none-eabi/lib/armv7-m\libg.a(lib_a-strcmp.o)
 .bss           0x00000000        0x0 c:/users/teamuis/appdata/local/arduino15/packages/arduino/tools/arm-none-eabi-gcc/4.8.3-2014q1/bin/../lib/gcc/arm-none-eabi/4.8.3/../../../../arm-none-eabi/lib/armv7-m\libg.a(lib_a-strcmp.o)
 .ARM.attributes
                0x00000000       0x1b c:/users/teamuis/appdata/local/arduino15/packages/arduino/tools/arm-none-eabi-gcc/4.8.3-2014q1/bin/../lib/gcc/arm-none-eabi/4.8.3/../../../../arm-none-eabi/lib/armv7-m\libg.a(lib_a-strcmp.o)
 .text          0x00000000        0x0 c:/users/teamuis/appdata/local/arduino15/packages/arduino/tools/arm-none-eabi-gcc/4.8.3-2014q1/bin/../lib/gcc/arm-none-eabi/4.8.3/../../../../arm-none-eabi/lib/armv7-m\libg.a(lib_a-wbuf.o)
 .data          0x00000000        0x0 c:/users/teamuis/appdata/local/arduino15/packages/arduino/tools/arm-none-eabi-gcc/4.8.3-2014q1/bin/../lib/gcc/arm-none-eabi/4.8.3/../../../../arm-none-eabi/lib/armv7-m\libg.a(lib_a-wbuf.o)
 .bss           0x00000000        0x0 c:/users/teamuis/appdata/local/arduino15/packages/arduino/tools/arm-none-eabi-gcc/4.8.3-2014q1/bin/../lib/gcc/arm-none-eabi/4.8.3/../../../../arm-none-eabi/lib/armv7-m\libg.a(lib_a-wbuf.o)
 .text.__swbuf  0x00000000       0x10 c:/users/teamuis/appdata/local/arduino15/packages/arduino/tools/arm-none-eabi-gcc/4.8.3-2014q1/bin/../lib/gcc/arm-none-eabi/4.8.3/../../../../arm-none-eabi/lib/armv7-m\libg.a(lib_a-wbuf.o)
 .text          0x00000000        0x0 c:/users/teamuis/appdata/local/arduino15/packages/arduino/tools/arm-none-eabi-gcc/4.8.3-2014q1/bin/../lib/gcc/arm-none-eabi/4.8.3/../../../../arm-none-eabi/lib/armv7-m\libg.a(lib_a-wcrtomb.o)
 .data          0x00000000        0x0 c:/users/teamuis/appdata/local/arduino15/packages/arduino/tools/arm-none-eabi-gcc/4.8.3-2014q1/bin/../lib/gcc/arm-none-eabi/4.8.3/../../../../arm-none-eabi/lib/armv7-m\libg.a(lib_a-wcrtomb.o)
 .bss           0x00000000        0x0 c:/users/teamuis/appdata/local/arduino15/packages/arduino/tools/arm-none-eabi-gcc/4.8.3-2014q1/bin/../lib/gcc/arm-none-eabi/4.8.3/../../../../arm-none-eabi/lib/armv7-m\libg.a(lib_a-wcrtomb.o)
 .text.wcrtomb  0x00000000       0x58 c:/users/teamuis/appdata/local/arduino15/packages/arduino/tools/arm-none-eabi-gcc/4.8.3-2014q1/bin/../lib/gcc/arm-none-eabi/4.8.3/../../../../arm-none-eabi/lib/armv7-m\libg.a(lib_a-wcrtomb.o)
 .text          0x00000000        0x0 c:/users/teamuis/appdata/local/arduino15/packages/arduino/tools/arm-none-eabi-gcc/4.8.3-2014q1/bin/../lib/gcc/arm-none-eabi/4.8.3/../../../../arm-none-eabi/lib/armv7-m\libg.a(lib_a-wctomb_r.o)
 .data          0x00000000        0x0 c:/users/teamuis/appdata/local/arduino15/packages/arduino/tools/arm-none-eabi-gcc/4.8.3-2014q1/bin/../lib/gcc/arm-none-eabi/4.8.3/../../../../arm-none-eabi/lib/armv7-m\libg.a(lib_a-wctomb_r.o)
 .bss           0x00000000        0x0 c:/users/teamuis/appdata/local/arduino15/packages/arduino/tools/arm-none-eabi-gcc/4.8.3-2014q1/bin/../lib/gcc/arm-none-eabi/4.8.3/../../../../arm-none-eabi/lib/armv7-m\libg.a(lib_a-wctomb_r.o)
 .text._wctomb_r
                0x00000000       0x30 c:/users/teamuis/appdata/local/arduino15/packages/arduino/tools/arm-none-eabi-gcc/4.8.3-2014q1/bin/../lib/gcc/arm-none-eabi/4.8.3/../../../../arm-none-eabi/lib/armv7-m\libg.a(lib_a-wctomb_r.o)
 .text          0x00000000        0x0 c:/users/teamuis/appdata/local/arduino15/packages/arduino/tools/arm-none-eabi-gcc/4.8.3-2014q1/bin/../lib/gcc/arm-none-eabi/4.8.3/../../../../arm-none-eabi/lib/armv7-m\libg.a(lib_a-writer.o)
 .data          0x00000000        0x0 c:/users/teamuis/appdata/local/arduino15/packages/arduino/tools/arm-none-eabi-gcc/4.8.3-2014q1/bin/../lib/gcc/arm-none-eabi/4.8.3/../../../../arm-none-eabi/lib/armv7-m\libg.a(lib_a-writer.o)
 .bss           0x00000000        0x0 c:/users/teamuis/appdata/local/arduino15/packages/arduino/tools/arm-none-eabi-gcc/4.8.3-2014q1/bin/../lib/gcc/arm-none-eabi/4.8.3/../../../../arm-none-eabi/lib/armv7-m\libg.a(lib_a-writer.o)
 .text          0x00000000        0x0 c:/users/teamuis/appdata/local/arduino15/packages/arduino/tools/arm-none-eabi-gcc/4.8.3-2014q1/bin/../lib/gcc/arm-none-eabi/4.8.3/../../../../arm-none-eabi/lib/armv7-m\libg.a(lib_a-__atexit.o)
 .data          0x00000000        0x0 c:/users/teamuis/appdata/local/arduino15/packages/arduino/tools/arm-none-eabi-gcc/4.8.3-2014q1/bin/../lib/gcc/arm-none-eabi/4.8.3/../../../../arm-none-eabi/lib/armv7-m\libg.a(lib_a-__atexit.o)
 .bss           0x00000000        0x0 c:/users/teamuis/appdata/local/arduino15/packages/arduino/tools/arm-none-eabi-gcc/4.8.3-2014q1/bin/../lib/gcc/arm-none-eabi/4.8.3/../../../../arm-none-eabi/lib/armv7-m\libg.a(lib_a-__atexit.o)
 .text          0x00000000        0x0 c:/users/teamuis/appdata/local/arduino15/packages/arduino/tools/arm-none-eabi-gcc/4.8.3-2014q1/bin/../lib/gcc/arm-none-eabi/4.8.3/../../../../arm-none-eabi/lib/armv7-m\libg.a(lib_a-closer.o)
 .data          0x00000000        0x0 c:/users/teamuis/appdata/local/arduino15/packages/arduino/tools/arm-none-eabi-gcc/4.8.3-2014q1/bin/../lib/gcc/arm-none-eabi/4.8.3/../../../../arm-none-eabi/lib/armv7-m\libg.a(lib_a-closer.o)
 .bss           0x00000000        0x0 c:/users/teamuis/appdata/local/arduino15/packages/arduino/tools/arm-none-eabi-gcc/4.8.3-2014q1/bin/../lib/gcc/arm-none-eabi/4.8.3/../../../../arm-none-eabi/lib/armv7-m\libg.a(lib_a-closer.o)
 .text          0x00000000        0x0 c:/users/teamuis/appdata/local/arduino15/packages/arduino/tools/arm-none-eabi-gcc/4.8.3-2014q1/bin/../lib/gcc/arm-none-eabi/4.8.3/../../../../arm-none-eabi/lib/armv7-m\libg.a(lib_a-fclose.o)
 .data          0x00000000        0x0 c:/users/teamuis/appdata/local/arduino15/packages/arduino/tools/arm-none-eabi-gcc/4.8.3-2014q1/bin/../lib/gcc/arm-none-eabi/4.8.3/../../../../arm-none-eabi/lib/armv7-m\libg.a(lib_a-fclose.o)
 .bss           0x00000000        0x0 c:/users/teamuis/appdata/local/arduino15/packages/arduino/tools/arm-none-eabi-gcc/4.8.3-2014q1/bin/../lib/gcc/arm-none-eabi/4.8.3/../../../../arm-none-eabi/lib/armv7-m\libg.a(lib_a-fclose.o)
 .text          0x00000000        0x0 c:/users/teamuis/appdata/local/arduino15/packages/arduino/tools/arm-none-eabi-gcc/4.8.3-2014q1/bin/../lib/gcc/arm-none-eabi/4.8.3/../../../../arm-none-eabi/lib/armv7-m\libg.a(lib_a-fstatr.o)
 .data          0x00000000        0x0 c:/users/teamuis/appdata/local/arduino15/packages/arduino/tools/arm-none-eabi-gcc/4.8.3-2014q1/bin/../lib/gcc/arm-none-eabi/4.8.3/../../../../arm-none-eabi/lib/armv7-m\libg.a(lib_a-fstatr.o)
 .bss           0x00000000        0x0 c:/users/teamuis/appdata/local/arduino15/packages/arduino/tools/arm-none-eabi-gcc/4.8.3-2014q1/bin/../lib/gcc/arm-none-eabi/4.8.3/../../../../arm-none-eabi/lib/armv7-m\libg.a(lib_a-fstatr.o)
 .text          0x00000000        0x0 c:/users/teamuis/appdata/local/arduino15/packages/arduino/tools/arm-none-eabi-gcc/4.8.3-2014q1/bin/../lib/gcc/arm-none-eabi/4.8.3/../../../../arm-none-eabi/lib/armv7-m\libg.a(lib_a-isattyr.o)
 .data          0x00000000        0x0 c:/users/teamuis/appdata/local/arduino15/packages/arduino/tools/arm-none-eabi-gcc/4.8.3-2014q1/bin/../lib/gcc/arm-none-eabi/4.8.3/../../../../arm-none-eabi/lib/armv7-m\libg.a(lib_a-isattyr.o)
 .bss           0x00000000        0x0 c:/users/teamuis/appdata/local/arduino15/packages/arduino/tools/arm-none-eabi-gcc/4.8.3-2014q1/bin/../lib/gcc/arm-none-eabi/4.8.3/../../../../arm-none-eabi/lib/armv7-m\libg.a(lib_a-isattyr.o)
 .text          0x00000000        0x0 c:/users/teamuis/appdata/local/arduino15/packages/arduino/tools/arm-none-eabi-gcc/4.8.3-2014q1/bin/../lib/gcc/arm-none-eabi/4.8.3/../../../../arm-none-eabi/lib/armv7-m\libg.a(lib_a-lseekr.o)
 .data          0x00000000        0x0 c:/users/teamuis/appdata/local/arduino15/packages/arduino/tools/arm-none-eabi-gcc/4.8.3-2014q1/bin/../lib/gcc/arm-none-eabi/4.8.3/../../../../arm-none-eabi/lib/armv7-m\libg.a(lib_a-lseekr.o)
 .bss           0x00000000        0x0 c:/users/teamuis/appdata/local/arduino15/packages/arduino/tools/arm-none-eabi-gcc/4.8.3-2014q1/bin/../lib/gcc/arm-none-eabi/4.8.3/../../../../arm-none-eabi/lib/armv7-m\libg.a(lib_a-lseekr.o)
 .text          0x00000000        0x0 c:/users/teamuis/appdata/local/arduino15/packages/arduino/tools/arm-none-eabi-gcc/4.8.3-2014q1/bin/../lib/gcc/arm-none-eabi/4.8.3/../../../../arm-none-eabi/lib/armv7-m\libg.a(lib_a-readr.o)
 .data          0x00000000        0x0 c:/users/teamuis/appdata/local/arduino15/packages/arduino/tools/arm-none-eabi-gcc/4.8.3-2014q1/bin/../lib/gcc/arm-none-eabi/4.8.3/../../../../arm-none-eabi/lib/armv7-m\libg.a(lib_a-readr.o)
 .bss           0x00000000        0x0 c:/users/teamuis/appdata/local/arduino15/packages/arduino/tools/arm-none-eabi-gcc/4.8.3-2014q1/bin/../lib/gcc/arm-none-eabi/4.8.3/../../../../arm-none-eabi/lib/armv7-m\libg.a(lib_a-readr.o)
 .text          0x00000000        0x0 c:/users/teamuis/appdata/local/arduino15/packages/arduino/tools/arm-none-eabi-gcc/4.8.3-2014q1/bin/../lib/gcc/arm-none-eabi/4.8.3/../../../../arm-none-eabi/lib/armv7-m\libg.a(lib_a-reent.o)
 .data          0x00000000        0x0 c:/users/teamuis/appdata/local/arduino15/packages/arduino/tools/arm-none-eabi-gcc/4.8.3-2014q1/bin/../lib/gcc/arm-none-eabi/4.8.3/../../../../arm-none-eabi/lib/armv7-m\libg.a(lib_a-reent.o)
 .bss           0x00000000        0x0 c:/users/teamuis/appdata/local/arduino15/packages/arduino/tools/arm-none-eabi-gcc/4.8.3-2014q1/bin/../lib/gcc/arm-none-eabi/4.8.3/../../../../arm-none-eabi/lib/armv7-m\libg.a(lib_a-reent.o)
 .text.cleanup_glue
                0x00000000       0x1c c:/users/teamuis/appdata/local/arduino15/packages/arduino/tools/arm-none-eabi-gcc/4.8.3-2014q1/bin/../lib/gcc/arm-none-eabi/4.8.3/../../../../arm-none-eabi/lib/armv7-m\libg.a(lib_a-reent.o)
 .text._reclaim_reent
                0x00000000       0x90 c:/users/teamuis/appdata/local/arduino15/packages/arduino/tools/arm-none-eabi-gcc/4.8.3-2014q1/bin/../lib/gcc/arm-none-eabi/4.8.3/../../../../arm-none-eabi/lib/armv7-m\libg.a(lib_a-reent.o)
 .data          0x00000000        0x0 c:/users/teamuis/appdata/local/arduino15/packages/arduino/tools/arm-none-eabi-gcc/4.8.3-2014q1/bin/../lib/gcc/arm-none-eabi/4.8.3/armv7-m\libgcc.a(_aeabi_uldivmod.o)
 .bss           0x00000000        0x0 c:/users/teamuis/appdata/local/arduino15/packages/arduino/tools/arm-none-eabi-gcc/4.8.3-2014q1/bin/../lib/gcc/arm-none-eabi/4.8.3/armv7-m\libgcc.a(_aeabi_uldivmod.o)
 .data          0x00000000        0x0 c:/users/teamuis/appdata/local/arduino15/packages/arduino/tools/arm-none-eabi-gcc/4.8.3-2014q1/bin/../lib/gcc/arm-none-eabi/4.8.3/armv7-m\libgcc.a(bpabi.o)
 .bss           0x00000000        0x0 c:/users/teamuis/appdata/local/arduino15/packages/arduino/tools/arm-none-eabi-gcc/4.8.3-2014q1/bin/../lib/gcc/arm-none-eabi/4.8.3/armv7-m\libgcc.a(bpabi.o)
 .data          0x00000000        0x0 c:/users/teamuis/appdata/local/arduino15/packages/arduino/tools/arm-none-eabi-gcc/4.8.3-2014q1/bin/../lib/gcc/arm-none-eabi/4.8.3/armv7-m\libgcc.a(_dvmd_tls.o)
 .bss           0x00000000        0x0 c:/users/teamuis/appdata/local/arduino15/packages/arduino/tools/arm-none-eabi-gcc/4.8.3-2014q1/bin/../lib/gcc/arm-none-eabi/4.8.3/armv7-m\libgcc.a(_dvmd_tls.o)
 .data          0x00000000        0x0 c:/users/teamuis/appdata/local/arduino15/packages/arduino/tools/arm-none-eabi-gcc/4.8.3-2014q1/bin/../lib/gcc/arm-none-eabi/4.8.3/armv7-m\libgcc.a(_divdi3.o)
 .bss           0x00000000        0x0 c:/users/teamuis/appdata/local/arduino15/packages/arduino/tools/arm-none-eabi-gcc/4.8.3-2014q1/bin/../lib/gcc/arm-none-eabi/4.8.3/armv7-m\libgcc.a(_divdi3.o)
 .ARM.extab     0x00000000        0x0 c:/users/teamuis/appdata/local/arduino15/packages/arduino/tools/arm-none-eabi-gcc/4.8.3-2014q1/bin/../lib/gcc/arm-none-eabi/4.8.3/armv7-m\libgcc.a(_divdi3.o)
 .data          0x00000000        0x0 c:/users/teamuis/appdata/local/arduino15/packages/arduino/tools/arm-none-eabi-gcc/4.8.3-2014q1/bin/../lib/gcc/arm-none-eabi/4.8.3/armv7-m\libgcc.a(_udivdi3.o)
 .bss           0x00000000        0x0 c:/users/teamuis/appdata/local/arduino15/packages/arduino/tools/arm-none-eabi-gcc/4.8.3-2014q1/bin/../lib/gcc/arm-none-eabi/4.8.3/armv7-m\libgcc.a(_udivdi3.o)
 .ARM.extab     0x00000000        0x0 c:/users/teamuis/appdata/local/arduino15/packages/arduino/tools/arm-none-eabi-gcc/4.8.3-2014q1/bin/../lib/gcc/arm-none-eabi/4.8.3/armv7-m\libgcc.a(_udivdi3.o)
 .text          0x00000000        0x0 c:/users/teamuis/appdata/local/arduino15/packages/arduino/tools/arm-none-eabi-gcc/4.8.3-2014q1/bin/../lib/gcc/arm-none-eabi/4.8.3/armv7-m/crtend.o
 .data          0x00000000        0x0 c:/users/teamuis/appdata/local/arduino15/packages/arduino/tools/arm-none-eabi-gcc/4.8.3-2014q1/bin/../lib/gcc/arm-none-eabi/4.8.3/armv7-m/crtend.o
 .bss           0x00000000        0x0 c:/users/teamuis/appdata/local/arduino15/packages/arduino/tools/arm-none-eabi-gcc/4.8.3-2014q1/bin/../lib/gcc/arm-none-eabi/4.8.3/armv7-m/crtend.o
 .eh_frame      0x00000000        0x4 c:/users/teamuis/appdata/local/arduino15/packages/arduino/tools/arm-none-eabi-gcc/4.8.3-2014q1/bin/../lib/gcc/arm-none-eabi/4.8.3/armv7-m/crtend.o
 .jcr           0x00000000        0x4 c:/users/teamuis/appdata/local/arduino15/packages/arduino/tools/arm-none-eabi-gcc/4.8.3-2014q1/bin/../lib/gcc/arm-none-eabi/4.8.3/armv7-m/crtend.o
 .ARM.attributes
                0x00000000       0x2d c:/users/teamuis/appdata/local/arduino15/packages/arduino/tools/arm-none-eabi-gcc/4.8.3-2014q1/bin/../lib/gcc/arm-none-eabi/4.8.3/armv7-m/crtend.o
 .text          0x00000000        0x0 c:/users/teamuis/appdata/local/arduino15/packages/arduino/tools/arm-none-eabi-gcc/4.8.3-2014q1/bin/../lib/gcc/arm-none-eabi/4.8.3/armv7-m/crtn.o
 .data          0x00000000        0x0 c:/users/teamuis/appdata/local/arduino15/packages/arduino/tools/arm-none-eabi-gcc/4.8.3-2014q1/bin/../lib/gcc/arm-none-eabi/4.8.3/armv7-m/crtn.o
 .bss           0x00000000        0x0 c:/users/teamuis/appdata/local/arduino15/packages/arduino/tools/arm-none-eabi-gcc/4.8.3-2014q1/bin/../lib/gcc/arm-none-eabi/4.8.3/armv7-m/crtn.o

Memory Configuration

Name             Origin             Length             Attributes
rom              0x00080000         0x00080000         xr
sram0            0x20000000         0x00010000         xrw
sram1            0x20080000         0x00008000         xrw
ram              0x20070000         0x00018000         xrw
*default*        0x00000000         0xffffffff

Linker script and memory map

LOAD c:/users/teamuis/appdata/local/arduino15/packages/arduino/tools/arm-none-eabi-gcc/4.8.3-2014q1/bin/../lib/gcc/arm-none-eabi/4.8.3/armv7-m/crti.o
LOAD c:/users/teamuis/appdata/local/arduino15/packages/arduino/tools/arm-none-eabi-gcc/4.8.3-2014q1/bin/../lib/gcc/arm-none-eabi/4.8.3/armv7-m/crtbegin.o
LOAD c:/users/teamuis/appdata/local/arduino15/packages/arduino/tools/arm-none-eabi-gcc/4.8.3-2014q1/bin/../lib/gcc/arm-none-eabi/4.8.3/../../../../arm-none-eabi/lib/armv7-m/crt0.o
START GROUP
LOAD C:\Users\TeamUiS\AppData\Local\Temp\VMBuilds\Circulation\arduino_due_x_dbg\Release\Circulation.cpp.o
LOAD C:\Users\TeamUiS\AppData\Local\Temp\VMBuilds\Circulation\arduino_due_x_dbg\Release\variant\variant.cpp.o
LOAD C:\Users\TeamUiS\AppData\Local\arduino15\packages\arduino\hardware\sam\1.6.11\variants\arduino_due_x/libsam_sam3x8e_gcc_rel.a
LOAD C:\Users\TeamUiS\AppData\Local\Temp\VMBuilds\Circulation\arduino_due_x_dbg\Release/core.a
END GROUP
LOAD c:/users/teamuis/appdata/local/arduino15/packages/arduino/tools/arm-none-eabi-gcc/4.8.3-2014q1/bin/../lib/gcc/arm-none-eabi/4.8.3/../../../../arm-none-eabi/lib/armv7-m\libm.a
START GROUP
LOAD c:/users/teamuis/appdata/local/arduino15/packages/arduino/tools/arm-none-eabi-gcc/4.8.3-2014q1/bin/../lib/gcc/arm-none-eabi/4.8.3/armv7-m\libgcc.a
LOAD c:/users/teamuis/appdata/local/arduino15/packages/arduino/tools/arm-none-eabi-gcc/4.8.3-2014q1/bin/../lib/gcc/arm-none-eabi/4.8.3/../../../../arm-none-eabi/lib/armv7-m\libg.a
LOAD c:/users/teamuis/appdata/local/arduino15/packages/arduino/tools/arm-none-eabi-gcc/4.8.3-2014q1/bin/../lib/gcc/arm-none-eabi/4.8.3/../../../../arm-none-eabi/lib/armv7-m\libc.a
END GROUP
LOAD c:/users/teamuis/appdata/local/arduino15/packages/arduino/tools/arm-none-eabi-gcc/4.8.3-2014q1/bin/../lib/gcc/arm-none-eabi/4.8.3/armv7-m/crtend.o
LOAD c:/users/teamuis/appdata/local/arduino15/packages/arduino/tools/arm-none-eabi-gcc/4.8.3-2014q1/bin/../lib/gcc/arm-none-eabi/4.8.3/armv7-m/crtn.o

.text           0x00080000     0x6bc4
                0x00080000                . = ALIGN (0x4)
                0x00080000                _sfixed = .
 *(.vectors .vectors.*)
 .vectors       0x00080000       0xf4 C:\Users\TeamUiS\AppData\Local\arduino15\packages\arduino\hardware\sam\1.6.11\variants\arduino_due_x/libsam_sam3x8e_gcc_rel.a(startup_sam3xa.o)
                0x00080000                exception_table
 *(.text .text.* .gnu.linkonce.t.*)
 .text          0x000800f4       0x54 c:/users/teamuis/appdata/local/arduino15/packages/arduino/tools/arm-none-eabi-gcc/4.8.3-2014q1/bin/../lib/gcc/arm-none-eabi/4.8.3/armv7-m/crtbegin.o
 .text._Z13lowpassfilteri
                0x00080148       0x58 C:\Users\TeamUiS\AppData\Local\Temp\VMBuilds\Circulation\arduino_due_x_dbg\Release\Circulation.cpp.o
                0x00080148                lowpassfilter(int)
 .text._Z15ConvertPressuref
                0x000801a0       0x70 C:\Users\TeamUiS\AppData\Local\Temp\VMBuilds\Circulation\arduino_due_x_dbg\Release\Circulation.cpp.o
                0x000801a0                ConvertPressure(float)
 .text.setup    0x00080210       0x68 C:\Users\TeamUiS\AppData\Local\Temp\VMBuilds\Circulation\arduino_due_x_dbg\Release\Circulation.cpp.o
                0x00080210                setup
 .text.loop     0x00080278      0x2a8 C:\Users\TeamUiS\AppData\Local\Temp\VMBuilds\Circulation\arduino_due_x_dbg\Release\Circulation.cpp.o
                0x00080278                loop
 .text._Z11serialEventv
                0x00080520        0x2 C:\Users\TeamUiS\AppData\Local\Temp\VMBuilds\Circulation\arduino_due_x_dbg\Release\variant\variant.cpp.o
                0x00080520                serialEvent()
 *fill*         0x00080522        0x2 
 .text.UART_Handler
                0x00080524        0xc C:\Users\TeamUiS\AppData\Local\Temp\VMBuilds\Circulation\arduino_due_x_dbg\Release\variant\variant.cpp.o
                0x00080524                UART_Handler
 .text._Z12serialEvent1v
                0x00080530        0x2 C:\Users\TeamUiS\AppData\Local\Temp\VMBuilds\Circulation\arduino_due_x_dbg\Release\variant\variant.cpp.o
                0x00080530                serialEvent1()
 .text._Z12serialEvent2v
                0x00080532        0x2 C:\Users\TeamUiS\AppData\Local\Temp\VMBuilds\Circulation\arduino_due_x_dbg\Release\variant\variant.cpp.o
                0x00080532                serialEvent2()
 .text._Z12serialEvent3v
                0x00080534        0x2 C:\Users\TeamUiS\AppData\Local\Temp\VMBuilds\Circulation\arduino_due_x_dbg\Release\variant\variant.cpp.o
                0x00080534                serialEvent3()
 *fill*         0x00080536        0x2 
 .text.USART0_Handler
                0x00080538        0xc C:\Users\TeamUiS\AppData\Local\Temp\VMBuilds\Circulation\arduino_due_x_dbg\Release\variant\variant.cpp.o
                0x00080538                USART0_Handler
 .text.USART1_Handler
                0x00080544        0xc C:\Users\TeamUiS\AppData\Local\Temp\VMBuilds\Circulation\arduino_due_x_dbg\Release\variant\variant.cpp.o
                0x00080544                USART1_Handler
 .text.USART3_Handler
                0x00080550        0xc C:\Users\TeamUiS\AppData\Local\Temp\VMBuilds\Circulation\arduino_due_x_dbg\Release\variant\variant.cpp.o
                0x00080550                USART3_Handler
 .text.init     0x0008055c      0x128 C:\Users\TeamUiS\AppData\Local\Temp\VMBuilds\Circulation\arduino_due_x_dbg\Release\variant\variant.cpp.o
                0x0008055c                init
 .text.startup._GLOBAL__sub_I_g_APinDescription
                0x00080684       0xd4 C:\Users\TeamUiS\AppData\Local\Temp\VMBuilds\Circulation\arduino_due_x_dbg\Release\variant\variant.cpp.o
 .text._Z14serialEventRunv
                0x00080758       0x44 C:\Users\TeamUiS\AppData\Local\Temp\VMBuilds\Circulation\arduino_due_x_dbg\Release\variant\variant.cpp.o
                0x00080758                serialEventRun()
 .text.PIO_PullUp
                0x0008079c        0xa C:\Users\TeamUiS\AppData\Local\arduino15\packages\arduino\hardware\sam\1.6.11\variants\arduino_due_x/libsam_sam3x8e_gcc_rel.a(pio.o)
                0x0008079c                PIO_PullUp
 .text.PIO_SetPeripheral
                0x000807a6       0x26 C:\Users\TeamUiS\AppData\Local\arduino15\packages\arduino\hardware\sam\1.6.11\variants\arduino_due_x/libsam_sam3x8e_gcc_rel.a(pio.o)
                0x000807a6                PIO_SetPeripheral
 .text.PIO_SetInput
                0x000807cc       0x26 C:\Users\TeamUiS\AppData\Local\arduino15\packages\arduino\hardware\sam\1.6.11\variants\arduino_due_x/libsam_sam3x8e_gcc_rel.a(pio.o)
                0x000807cc                PIO_SetInput
 .text.PIO_SetOutput
                0x000807f2       0x24 C:\Users\TeamUiS\AppData\Local\arduino15\packages\arduino\hardware\sam\1.6.11\variants\arduino_due_x/libsam_sam3x8e_gcc_rel.a(pio.o)
                0x000807f2                PIO_SetOutput
 *fill*         0x00080816        0x2 
 .text.PIO_Configure
                0x00080818       0x64 C:\Users\TeamUiS\AppData\Local\arduino15\packages\arduino\hardware\sam\1.6.11\variants\arduino_due_x/libsam_sam3x8e_gcc_rel.a(pio.o)
                0x00080818                PIO_Configure
 .text.PIO_GetOutputDataStatus
                0x0008087c       0x14 C:\Users\TeamUiS\AppData\Local\arduino15\packages\arduino\hardware\sam\1.6.11\variants\arduino_due_x/libsam_sam3x8e_gcc_rel.a(pio.o)
                0x0008087c                PIO_GetOutputDataStatus
 .text.pmc_enable_upll_clock
                0x00080890       0x14 C:\Users\TeamUiS\AppData\Local\arduino15\packages\arduino\hardware\sam\1.6.11\variants\arduino_due_x/libsam_sam3x8e_gcc_rel.a(pmc.o)
                0x00080890                pmc_enable_upll_clock
 .text.pmc_enable_periph_clk
                0x000808a4       0x44 C:\Users\TeamUiS\AppData\Local\arduino15\packages\arduino\hardware\sam\1.6.11\variants\arduino_due_x/libsam_sam3x8e_gcc_rel.a(pmc.o)
                0x000808a4                pmc_enable_periph_clk
 .text.pmc_disable_periph_clk
                0x000808e8       0x40 C:\Users\TeamUiS\AppData\Local\arduino15\packages\arduino\hardware\sam\1.6.11\variants\arduino_due_x/libsam_sam3x8e_gcc_rel.a(pmc.o)
                0x000808e8                pmc_disable_periph_clk
 .text.pmc_switch_udpck_to_upllck
                0x00080928       0x14 C:\Users\TeamUiS\AppData\Local\arduino15\packages\arduino\hardware\sam\1.6.11\variants\arduino_due_x/libsam_sam3x8e_gcc_rel.a(pmc.o)
                0x00080928                pmc_switch_udpck_to_upllck
 .text.pmc_enable_udpck
                0x0008093c        0xc C:\Users\TeamUiS\AppData\Local\arduino15\packages\arduino\hardware\sam\1.6.11\variants\arduino_due_x/libsam_sam3x8e_gcc_rel.a(pmc.o)
                0x0008093c                pmc_enable_udpck
 .text.SystemInit
                0x00080948       0x88 C:\Users\TeamUiS\AppData\Local\arduino15\packages\arduino\hardware\sam\1.6.11\variants\arduino_due_x/libsam_sam3x8e_gcc_rel.a(system_sam3xa.o)
                0x00080948                SystemInit
 .text.Reset_Handler
                0x000809d0       0x78 C:\Users\TeamUiS\AppData\Local\arduino15\packages\arduino\hardware\sam\1.6.11\variants\arduino_due_x/libsam_sam3x8e_gcc_rel.a(startup_sam3xa.o)
                0x000809d0                Reset_Handler
 .text.adc_init
                0x00080a48       0x98 C:\Users\TeamUiS\AppData\Local\arduino15\packages\arduino\hardware\sam\1.6.11\variants\arduino_due_x/libsam_sam3x8e_gcc_rel.a(adc.o)
                0x00080a48                adc_init
 .text.adc_configure_trigger
                0x00080ae0        0xe C:\Users\TeamUiS\AppData\Local\arduino15\packages\arduino\hardware\sam\1.6.11\variants\arduino_due_x/libsam_sam3x8e_gcc_rel.a(adc.o)
                0x00080ae0                adc_configure_trigger
 .text.adc_configure_timing
                0x00080aee       0x1a C:\Users\TeamUiS\AppData\Local\arduino15\packages\arduino\hardware\sam\1.6.11\variants\arduino_due_x/libsam_sam3x8e_gcc_rel.a(adc.o)
                0x00080aee                adc_configure_timing
 .text.adc_start
                0x00080b08        0x6 C:\Users\TeamUiS\AppData\Local\arduino15\packages\arduino\hardware\sam\1.6.11\variants\arduino_due_x/libsam_sam3x8e_gcc_rel.a(adc.o)
                0x00080b08                adc_start
 .text.adc_enable_channel
                0x00080b0e        0xa C:\Users\TeamUiS\AppData\Local\arduino15\packages\arduino\hardware\sam\1.6.11\variants\arduino_due_x/libsam_sam3x8e_gcc_rel.a(adc.o)
                0x00080b0e                adc_enable_channel
 .text.adc_disable_channel
                0x00080b18        0xa C:\Users\TeamUiS\AppData\Local\arduino15\packages\arduino\hardware\sam\1.6.11\variants\arduino_due_x/libsam_sam3x8e_gcc_rel.a(adc.o)
                0x00080b18                adc_disable_channel
 .text.adc_disable_all_channel
                0x00080b22        0x8 C:\Users\TeamUiS\AppData\Local\arduino15\packages\arduino\hardware\sam\1.6.11\variants\arduino_due_x/libsam_sam3x8e_gcc_rel.a(adc.o)
                0x00080b22                adc_disable_all_channel
 .text.adc_get_channel_status
                0x00080b2a        0xa C:\Users\TeamUiS\AppData\Local\arduino15\packages\arduino\hardware\sam\1.6.11\variants\arduino_due_x/libsam_sam3x8e_gcc_rel.a(adc.o)
                0x00080b2a                adc_get_channel_status
 .text.adc_get_latest_value
                0x00080b34        0x4 C:\Users\TeamUiS\AppData\Local\arduino15\packages\arduino\hardware\sam\1.6.11\variants\arduino_due_x/libsam_sam3x8e_gcc_rel.a(adc.o)
                0x00080b34                adc_get_latest_value
 .text.adc_disable_interrupt
                0x00080b38        0x4 C:\Users\TeamUiS\AppData\Local\arduino15\packages\arduino\hardware\sam\1.6.11\variants\arduino_due_x/libsam_sam3x8e_gcc_rel.a(adc.o)
                0x00080b38                adc_disable_interrupt
 .text.adc_get_status
                0x00080b3c        0x4 C:\Users\TeamUiS\AppData\Local\arduino15\packages\arduino\hardware\sam\1.6.11\variants\arduino_due_x/libsam_sam3x8e_gcc_rel.a(adc.o)
                0x00080b3c                adc_get_status
 .text.UOTGHS_Handler
                0x00080b40       0x10 C:\Users\TeamUiS\AppData\Local\arduino15\packages\arduino\hardware\sam\1.6.11\variants\arduino_due_x/libsam_sam3x8e_gcc_rel.a(uotghs.o)
                0x00080b40                UOTGHS_Handler
 .text.__halt   0x00080b50        0x2 C:\Users\TeamUiS\AppData\Local\Temp\VMBuilds\Circulation\arduino_due_x_dbg\Release/core.a(cortex_handlers.c.o)
                0x00080b50                DACC_Handler
                0x00080b50                DebugMon_Handler
                0x00080b50                DMAC_Handler
                0x00080b50                TRNG_Handler
                0x00080b50                HardFault_Handler
                0x00080b50                TC2_Handler
                0x00080b50                TWI1_Handler
                0x00080b50                NMI_Handler
                0x00080b50                TC7_Handler
                0x00080b50                ADC_Handler
                0x00080b50                SMC_Handler
                0x00080b50                RTT_Handler
                0x00080b50                EFC1_Handler
                0x00080b50                PIOB_Handler
                0x00080b50                RTC_Handler
                0x00080b50                UsageFault_Handler
                0x00080b50                TC6_Handler
                0x00080b50                WDT_Handler
                0x00080b50                CAN0_Handler
                0x00080b50                TC4_Handler
                0x00080b50                TC1_Handler
                0x00080b50                HSMCI_Handler
                0x00080b50                TC3_Handler
                0x00080b50                TWI0_Handler
                0x00080b50                PIOA_Handler
                0x00080b50                SSC_Handler
                0x00080b50                EFC0_Handler
                0x00080b50                PMC_Handler
                0x00080b50                PWM_Handler
                0x00080b50                CAN1_Handler
                0x00080b50                MemManage_Handler
                0x00080b50                SUPC_Handler
                0x00080b50                TC8_Handler
                0x00080b50                USART2_Handler
                0x00080b50                PIOD_Handler
                0x00080b50                EMAC_Handler
                0x00080b50                PIOC_Handler
                0x00080b50                BusFault_Handler
                0x00080b50                RSTC_Handler
                0x00080b50                TC0_Handler
                0x00080b50                TC5_Handler
                0x00080b50                SPI0_Handler
 .text.SVC_Handler
                0x00080b52        0x4 C:\Users\TeamUiS\AppData\Local\Temp\VMBuilds\Circulation\arduino_due_x_dbg\Release/core.a(cortex_handlers.c.o)
                0x00080b52                SVC_Handler
 .text.PendSV_Handler
                0x00080b56        0x4 C:\Users\TeamUiS\AppData\Local\Temp\VMBuilds\Circulation\arduino_due_x_dbg\Release/core.a(cortex_handlers.c.o)
                0x00080b56                PendSV_Handler
 .text.SysTick_Handler
                0x00080b5a       0x16 C:\Users\TeamUiS\AppData\Local\Temp\VMBuilds\Circulation\arduino_due_x_dbg\Release/core.a(cortex_handlers.c.o)
                0x00080b5a                SysTick_Handler
 .text.__empty  0x00080b70        0x2 C:\Users\TeamUiS\AppData\Local\Temp\VMBuilds\Circulation\arduino_due_x_dbg\Release/core.a(hooks.c.o)
                0x00080b70                yield
 .text.__false  0x00080b72        0x4 C:\Users\TeamUiS\AppData\Local\Temp\VMBuilds\Circulation\arduino_due_x_dbg\Release/core.a(hooks.c.o)
                0x00080b72                sysTickHook
 .text.__halt   0x00080b76        0x2 C:\Users\TeamUiS\AppData\Local\Temp\VMBuilds\Circulation\arduino_due_x_dbg\Release/core.a(hooks.c.o)
                0x00080b76                svcHook
                0x00080b76                pendSVHook
 .text._sbrk    0x00080b78       0x1c C:\Users\TeamUiS\AppData\Local\Temp\VMBuilds\Circulation\arduino_due_x_dbg\Release/core.a(syscalls_sam3.c.o)
                0x00080b78                _sbrk
 .text.link     0x00080b94        0x6 C:\Users\TeamUiS\AppData\Local\Temp\VMBuilds\Circulation\arduino_due_x_dbg\Release/core.a(syscalls_sam3.c.o)
                0x00080b94                link
 .text._close   0x00080b9a        0x6 C:\Users\TeamUiS\AppData\Local\Temp\VMBuilds\Circulation\arduino_due_x_dbg\Release/core.a(syscalls_sam3.c.o)
                0x00080b9a                _close
 .text._fstat   0x00080ba0        0xa C:\Users\TeamUiS\AppData\Local\Temp\VMBuilds\Circulation\arduino_due_x_dbg\Release/core.a(syscalls_sam3.c.o)
                0x00080ba0                _fstat
 .text._isatty  0x00080baa        0x4 C:\Users\TeamUiS\AppData\Local\Temp\VMBuilds\Circulation\arduino_due_x_dbg\Release/core.a(syscalls_sam3.c.o)
                0x00080baa                _isatty
 .text._lseek   0x00080bae        0x4 C:\Users\TeamUiS\AppData\Local\Temp\VMBuilds\Circulation\arduino_due_x_dbg\Release/core.a(syscalls_sam3.c.o)
                0x00080bae                _lseek
 .text._read    0x00080bb2        0x4 C:\Users\TeamUiS\AppData\Local\Temp\VMBuilds\Circulation\arduino_due_x_dbg\Release/core.a(syscalls_sam3.c.o)
                0x00080bb2                _read
 *fill*         0x00080bb6        0x2 
 .text._write   0x00080bb8       0x24 C:\Users\TeamUiS\AppData\Local\Temp\VMBuilds\Circulation\arduino_due_x_dbg\Release/core.a(syscalls_sam3.c.o)
                0x00080bb8                _write
 .text._exit    0x00080bdc       0x10 C:\Users\TeamUiS\AppData\Local\Temp\VMBuilds\Circulation\arduino_due_x_dbg\Release/core.a(syscalls_sam3.c.o)
                0x00080bdc                _exit
 .text._kill    0x00080bec        0x2 C:\Users\TeamUiS\AppData\Local\Temp\VMBuilds\Circulation\arduino_due_x_dbg\Release/core.a(syscalls_sam3.c.o)
                0x00080bec                _kill
 .text._getpid  0x00080bee        0x6 C:\Users\TeamUiS\AppData\Local\Temp\VMBuilds\Circulation\arduino_due_x_dbg\Release/core.a(syscalls_sam3.c.o)
                0x00080bee                _getpid
 .text.millis   0x00080bf4        0x4 C:\Users\TeamUiS\AppData\Local\Temp\VMBuilds\Circulation\arduino_due_x_dbg\Release/core.a(wiring.c.o)
                0x00080bf4                millis
 .text.delay    0x00080bf8       0x1c C:\Users\TeamUiS\AppData\Local\Temp\VMBuilds\Circulation\arduino_due_x_dbg\Release/core.a(wiring.c.o)
                0x00080bf8                delay
 .text.mapResolution
                0x00080c14       0x12 C:\Users\TeamUiS\AppData\Local\Temp\VMBuilds\Circulation\arduino_due_x_dbg\Release/core.a(wiring_analog.c.o)
 *fill*         0x00080c26        0x2 
 .text.analogRead
                0x00080c28       0x9c C:\Users\TeamUiS\AppData\Local\Temp\VMBuilds\Circulation\arduino_due_x_dbg\Release/core.a(wiring_analog.c.o)
                0x00080c28                analogRead
 .text.analogOutputInit
                0x00080cc4        0x2 C:\Users\TeamUiS\AppData\Local\Temp\VMBuilds\Circulation\arduino_due_x_dbg\Release/core.a(wiring_analog.c.o)
                0x00080cc4                analogOutputInit
 *fill*         0x00080cc6        0x2 
 .text.pinMode  0x00080cc8      0x108 C:\Users\TeamUiS\AppData\Local\Temp\VMBuilds\Circulation\arduino_due_x_dbg\Release/core.a(wiring_digital.c.o)
                0x00080cc8                pinMode
 .text.digitalWrite
                0x00080dd0       0x70 C:\Users\TeamUiS\AppData\Local\Temp\VMBuilds\Circulation\arduino_due_x_dbg\Release/core.a(wiring_digital.c.o)
                0x00080dd0                digitalWrite
 .text.initVariant
                0x00080e40        0x2 C:\Users\TeamUiS\AppData\Local\Temp\VMBuilds\Circulation\arduino_due_x_dbg\Release/core.a(main.cpp.o)
                0x00080e40                initVariant
 *fill*         0x00080e42        0x2 
 .text.startup.main
                0x00080e44       0x38 C:\Users\TeamUiS\AppData\Local\Temp\VMBuilds\Circulation\arduino_due_x_dbg\Release/core.a(main.cpp.o)
                0x00080e44                main
 .text._ZN5Print5writeEPKhj
                0x00080e7c       0x22 C:\Users\TeamUiS\AppData\Local\Temp\VMBuilds\Circulation\arduino_due_x_dbg\Release/core.a(Print.cpp.o)
                0x00080e7c                Print::write(unsigned char const*, unsigned int)
 .text._ZN5Print5writeEPKc
                0x00080e9e       0x1e C:\Users\TeamUiS\AppData\Local\Temp\VMBuilds\Circulation\arduino_due_x_dbg\Release/core.a(Print.cpp.o)
                0x00080e9e                Print::write(char const*)
 .text._ZN5Print5printEPKc
                0x00080ebc        0x8 C:\Users\TeamUiS\AppData\Local\Temp\VMBuilds\Circulation\arduino_due_x_dbg\Release/core.a(Print.cpp.o)
                0x00080ebc                Print::print(char const*)
 .text._ZN5Print5printEc
                0x00080ec4        0xa C:\Users\TeamUiS\AppData\Local\Temp\VMBuilds\Circulation\arduino_due_x_dbg\Release/core.a(Print.cpp.o)
                0x00080ec4                Print::print(char)
 *fill*         0x00080ece        0x2 
 .text._ZN5Print7printlnEv
                0x00080ed0       0x10 C:\Users\TeamUiS\AppData\Local\Temp\VMBuilds\Circulation\arduino_due_x_dbg\Release/core.a(Print.cpp.o)
                0x00080ed0                Print::println()
 .text._ZN5Print7printlnEPKc
                0x00080ee0       0x14 C:\Users\TeamUiS\AppData\Local\Temp\VMBuilds\Circulation\arduino_due_x_dbg\Release/core.a(Print.cpp.o)
                0x00080ee0                Print::println(char const*)
 .text._ZN5Print11printNumberEmh
                0x00080ef4       0x3e C:\Users\TeamUiS\AppData\Local\Temp\VMBuilds\Circulation\arduino_due_x_dbg\Release/core.a(Print.cpp.o)
                0x00080ef4                Print::printNumber(unsigned long, unsigned char)
 .text._ZN5Print5printEli
                0x00080f32       0x3c C:\Users\TeamUiS\AppData\Local\Temp\VMBuilds\Circulation\arduino_due_x_dbg\Release/core.a(Print.cpp.o)
                0x00080f32                Print::print(long, int)
 .text._ZN5Print5printEii
                0x00080f6e        0x4 C:\Users\TeamUiS\AppData\Local\Temp\VMBuilds\Circulation\arduino_due_x_dbg\Release/core.a(Print.cpp.o)
                0x00080f6e                Print::print(int, int)
 *fill*         0x00080f72        0x2 
 .text._ZN5Print10printFloatEdh
                0x00080f74      0x148 C:\Users\TeamUiS\AppData\Local\Temp\VMBuilds\Circulation\arduino_due_x_dbg\Release/core.a(Print.cpp.o)
                0x00080f74                Print::printFloat(double, unsigned char)
 .text._ZN5Print5printEdi
                0x000810bc        0xa C:\Users\TeamUiS\AppData\Local\Temp\VMBuilds\Circulation\arduino_due_x_dbg\Release/core.a(Print.cpp.o)
                0x000810bc                Print::print(double, int)
 *fill*         0x000810c6        0x2 
 .text.initiateReset
                0x000810c8        0xc C:\Users\TeamUiS\AppData\Local\Temp\VMBuilds\Circulation\arduino_due_x_dbg\Release/core.a(Reset.cpp.o)
                0x000810c8                initiateReset
 .text.cancelReset
                0x000810d4       0x10 C:\Users\TeamUiS\AppData\Local\Temp\VMBuilds\Circulation\arduino_due_x_dbg\Release/core.a(Reset.cpp.o)
                0x000810d4                cancelReset
 .text.tickReset
                0x000810e4       0x20 C:\Users\TeamUiS\AppData\Local\Temp\VMBuilds\Circulation\arduino_due_x_dbg\Release/core.a(Reset.cpp.o)
                0x000810e4                tickReset
 .text._ZN10RingBufferC2Ev
                0x00081104       0x1a C:\Users\TeamUiS\AppData\Local\Temp\VMBuilds\Circulation\arduino_due_x_dbg\Release/core.a(RingBuffer.cpp.o)
                0x00081104                RingBuffer::RingBuffer()
                0x00081104                RingBuffer::RingBuffer()
 .text._ZN10RingBuffer10store_charEh
                0x0008111e       0x1e C:\Users\TeamUiS\AppData\Local\Temp\VMBuilds\Circulation\arduino_due_x_dbg\Release/core.a(RingBuffer.cpp.o)
                0x0008111e                RingBuffer::store_char(unsigned char)
 .text._ZN9UARTClasscvbEv
                0x0008113c        0x4 C:\Users\TeamUiS\AppData\Local\Temp\VMBuilds\Circulation\arduino_due_x_dbg\Release/core.a(UARTClass.cpp.o)
                0x0008113c                UARTClass::operator bool()
 .text._ZN9UARTClass9availableEv
                0x00081140       0x12 C:\Users\TeamUiS\AppData\Local\Temp\VMBuilds\Circulation\arduino_due_x_dbg\Release/core.a(UARTClass.cpp.o)
                0x00081140                UARTClass::available()
 .text._ZN9UARTClass4peekEv
                0x00081152       0x1c C:\Users\TeamUiS\AppData\Local\Temp\VMBuilds\Circulation\arduino_due_x_dbg\Release/core.a(UARTClass.cpp.o)
                0x00081152                UARTClass::peek()
 .text._ZN9UARTClass4readEv
                0x0008116e       0x2a C:\Users\TeamUiS\AppData\Local\Temp\VMBuilds\Circulation\arduino_due_x_dbg\Release/core.a(UARTClass.cpp.o)
                0x0008116e                UARTClass::read()
 .text._ZN9UARTClass5flushEv
                0x00081198       0x18 C:\Users\TeamUiS\AppData\Local\Temp\VMBuilds\Circulation\arduino_due_x_dbg\Release/core.a(UARTClass.cpp.o)
                0x00081198                UARTClass::flush()
 .text._ZN9UARTClass5writeEh
                0x000811b0       0x54 C:\Users\TeamUiS\AppData\Local\Temp\VMBuilds\Circulation\arduino_due_x_dbg\Release/core.a(UARTClass.cpp.o)
                0x000811b0                UARTClass::write(unsigned char)
 .text._ZN9UARTClass3endEv
                0x00081204       0x3c C:\Users\TeamUiS\AppData\Local\Temp\VMBuilds\Circulation\arduino_due_x_dbg\Release/core.a(UARTClass.cpp.o)
                0x00081204                UARTClass::end()
 .text._ZN9UARTClassC2EP4Uart4IRQnmP10RingBufferS4_
                0x00081240       0x24 C:\Users\TeamUiS\AppData\Local\Temp\VMBuilds\Circulation\arduino_due_x_dbg\Release/core.a(UARTClass.cpp.o)
                0x00081240                UARTClass::UARTClass(Uart*, IRQn, unsigned long, RingBuffer*, RingBuffer*)
                0x00081240                UARTClass::UARTClass(Uart*, IRQn, unsigned long, RingBuffer*, RingBuffer*)
 .text._ZN9UARTClass4initEmm
                0x00081264       0x70 C:\Users\TeamUiS\AppData\Local\Temp\VMBuilds\Circulation\arduino_due_x_dbg\Release/core.a(UARTClass.cpp.o)
                0x00081264                UARTClass::init(unsigned long, unsigned long)
 .text._ZN9UARTClass5beginEm
                0x000812d4        0x8 C:\Users\TeamUiS\AppData\Local\Temp\VMBuilds\Circulation\arduino_due_x_dbg\Release/core.a(UARTClass.cpp.o)
                0x000812d4                UARTClass::begin(unsigned long)
 .text._ZN9UARTClass10IrqHandlerEv
                0x000812dc       0x5a C:\Users\TeamUiS\AppData\Local\Temp\VMBuilds\Circulation\arduino_due_x_dbg\Release/core.a(UARTClass.cpp.o)
                0x000812dc                UARTClass::IrqHandler()
 .text._ZN10USARTClass5beginEm
                0x00081336        0x8 C:\Users\TeamUiS\AppData\Local\Temp\VMBuilds\Circulation\arduino_due_x_dbg\Release/core.a(USARTClass.cpp.o)
                0x00081336                USARTClass::begin(unsigned long)
 *fill*         0x0008133e        0x2 
 .text._ZN10USARTClassC2EP5Usart4IRQnmP10RingBufferS4_
                0x00081340       0x24 C:\Users\TeamUiS\AppData\Local\Temp\VMBuilds\Circulation\arduino_due_x_dbg\Release/core.a(USARTClass.cpp.o)
                0x00081340                USARTClass::USARTClass(Usart*, IRQn, unsigned long, RingBuffer*, RingBuffer*)
                0x00081340                USARTClass::USARTClass(Usart*, IRQn, unsigned long, RingBuffer*, RingBuffer*)
 .text._watchdogDefaultSetup
                0x00081364        0xc C:\Users\TeamUiS\AppData\Local\Temp\VMBuilds\Circulation\arduino_due_x_dbg\Release/core.a(watchdog.cpp.o)
                0x00081364                _watchdogDefaultSetup
                0x00081364                watchdogSetup()
 .text.unlikely._ZL11USB_SendZlpv
                0x00081370       0x20 C:\Users\TeamUiS\AppData\Local\Temp\VMBuilds\Circulation\arduino_due_x_dbg\Release/core.a(USBCore.cpp.o)
 .text._Z14USBD_Availablem
                0x00081390       0x2c C:\Users\TeamUiS\AppData\Local\Temp\VMBuilds\Circulation\arduino_due_x_dbg\Release/core.a(USBCore.cpp.o)
                0x00081390                USBD_Available(unsigned long)
 .text._Z9USBD_RecvmPvm
                0x000813bc       0x7c C:\Users\TeamUiS\AppData\Local\Temp\VMBuilds\Circulation\arduino_due_x_dbg\Release/core.a(USBCore.cpp.o)
                0x000813bc                USBD_Recv(unsigned long, void*, unsigned long)
 .text._Z9USBD_Recvm
                0x00081438       0x22 C:\Users\TeamUiS\AppData\Local\Temp\VMBuilds\Circulation\arduino_due_x_dbg\Release/core.a(USBCore.cpp.o)
                0x00081438                USBD_Recv(unsigned long)
 *fill*         0x0008145a        0x2 
 .text._Z9USBD_SendmPKvm
                0x0008145c       0x4c C:\Users\TeamUiS\AppData\Local\Temp\VMBuilds\Circulation\arduino_due_x_dbg\Release/core.a(USBCore.cpp.o)
                0x0008145c                USBD_Send(unsigned long, void const*, unsigned long)
 .text._Z16USBD_SendControlhPKvm
                0x000814a8       0x40 C:\Users\TeamUiS\AppData\Local\Temp\VMBuilds\Circulation\arduino_due_x_dbg\Release/core.a(USBCore.cpp.o)
                0x000814a8                USBD_SendControl(unsigned char, void const*, unsigned long)
 .text.unlikely._ZL24USB_SendStringDescriptorPKhi
                0x000814e8       0x64 C:\Users\TeamUiS\AppData\Local\Temp\VMBuilds\Circulation\arduino_due_x_dbg\Release/core.a(USBCore.cpp.o)
 .text._Z16USBD_RecvControlPvm
                0x0008154c       0x1c C:\Users\TeamUiS\AppData\Local\Temp\VMBuilds\Circulation\arduino_due_x_dbg\Release/core.a(USBCore.cpp.o)
                0x0008154c                USBD_RecvControl(void*, unsigned long)
 .text._Z26USBD_ClassInterfaceRequestR8USBSetup
                0x00081568       0x1e C:\Users\TeamUiS\AppData\Local\Temp\VMBuilds\Circulation\arduino_due_x_dbg\Release/core.a(USBCore.cpp.o)
                0x00081568                USBD_ClassInterfaceRequest(USBSetup&)
 .text._Z19USBD_SendInterfacesv
                0x00081586       0x22 C:\Users\TeamUiS\AppData\Local\Temp\VMBuilds\Circulation\arduino_due_x_dbg\Release/core.a(USBCore.cpp.o)
                0x00081586                USBD_SendInterfaces()
 .text._Z24USBD_SendOtherInterfacesv
                0x000815a8       0x22 C:\Users\TeamUiS\AppData\Local\Temp\VMBuilds\Circulation\arduino_due_x_dbg\Release/core.a(USBCore.cpp.o)
                0x000815a8                USBD_SendOtherInterfaces()
 .text._Z10USBD_Flushm
                0x000815ca       0x16 C:\Users\TeamUiS\AppData\Local\Temp\VMBuilds\Circulation\arduino_due_x_dbg\Release/core.a(USBCore.cpp.o)
                0x000815ca                USBD_Flush(unsigned long)
 .text._ZN10USBDevice_C2Ev
                0x000815e0       0x24 C:\Users\TeamUiS\AppData\Local\Temp\VMBuilds\Circulation\arduino_due_x_dbg\Release/core.a(USBCore.cpp.o)
                0x000815e0                USBDevice_::USBDevice_()
                0x000815e0                USBDevice_::USBDevice_()
 .text._ZN10USBDevice_6attachEv
                0x00081604       0x20 C:\Users\TeamUiS\AppData\Local\Temp\VMBuilds\Circulation\arduino_due_x_dbg\Release/core.a(USBCore.cpp.o)
                0x00081604                USBDevice_::attach()
 .text.startup._GLOBAL__sub_I_EndPoints
                0x00081624        0xc C:\Users\TeamUiS\AppData\Local\Temp\VMBuilds\Circulation\arduino_due_x_dbg\Release/core.a(USBCore.cpp.o)
 .text._ZL7USB_ISRv
                0x00081630      0x454 C:\Users\TeamUiS\AppData\Local\Temp\VMBuilds\Circulation\arduino_due_x_dbg\Release/core.a(USBCore.cpp.o)
 .text._ZN7Serial_9availableEv
                0x00081a84       0x18 C:\Users\TeamUiS\AppData\Local\Temp\VMBuilds\Circulation\arduino_due_x_dbg\Release/core.a(CDC.cpp.o)
                0x00081a84                Serial_::available()
 .text._ZN7Serial_17availableForWriteEv
                0x00081a9c        0x6 C:\Users\TeamUiS\AppData\Local\Temp\VMBuilds\Circulation\arduino_due_x_dbg\Release/core.a(CDC.cpp.o)
                0x00081a9c                Serial_::availableForWrite()
 *fill*         0x00081aa2        0x2 
 .text._ZN7Serial_4peekEv
                0x00081aa4       0x20 C:\Users\TeamUiS\AppData\Local\Temp\VMBuilds\Circulation\arduino_due_x_dbg\Release/core.a(CDC.cpp.o)
                0x00081aa4                Serial_::peek()
 .text._ZN7Serial_5writeEh
                0x00081ac4       0x16 C:\Users\TeamUiS\AppData\Local\Temp\VMBuilds\Circulation\arduino_due_x_dbg\Release/core.a(CDC.cpp.o)
                0x00081ac4                Serial_::write(unsigned char)
 *fill*         0x00081ada        0x2 
 .text._ZN7Serial_4readEv
                0x00081adc       0x44 C:\Users\TeamUiS\AppData\Local\Temp\VMBuilds\Circulation\arduino_due_x_dbg\Release/core.a(CDC.cpp.o)
                0x00081adc                Serial_::read()
 .text._ZN7Serial_5flushEv
                0x00081b20        0x6 C:\Users\TeamUiS\AppData\Local\Temp\VMBuilds\Circulation\arduino_due_x_dbg\Release/core.a(CDC.cpp.o)
                0x00081b20                Serial_::flush()
 *fill*         0x00081b26        0x2 
 .text._ZN7Serial_6acceptEv
                0x00081b28       0x70 C:\Users\TeamUiS\AppData\Local\Temp\VMBuilds\Circulation\arduino_due_x_dbg\Release/core.a(CDC.cpp.o)
                0x00081b28                Serial_::accept()
 .text._ZN7Serial_5writeEPKhj
                0x00081b98       0x2c C:\Users\TeamUiS\AppData\Local\Temp\VMBuilds\Circulation\arduino_due_x_dbg\Release/core.a(CDC.cpp.o)
                0x00081b98                Serial_::write(unsigned char const*, unsigned int)
 .text._Z16CDC_GetInterfacePh
                0x00081bc4       0x14 C:\Users\TeamUiS\AppData\Local\Temp\VMBuilds\Circulation\arduino_due_x_dbg\Release/core.a(CDC.cpp.o)
                0x00081bc4                CDC_GetInterface(unsigned char*)
 .text._Z21CDC_GetOtherInterfacePh
                0x00081bd8       0x14 C:\Users\TeamUiS\AppData\Local\Temp\VMBuilds\Circulation\arduino_due_x_dbg\Release/core.a(CDC.cpp.o)
                0x00081bd8                CDC_GetOtherInterface(unsigned char*)
 .text._Z9CDC_SetupR8USBSetup
                0x00081bec       0x78 C:\Users\TeamUiS\AppData\Local\Temp\VMBuilds\Circulation\arduino_due_x_dbg\Release/core.a(CDC.cpp.o)
                0x00081bec                CDC_Setup(USBSetup&)
 .text.startup._GLOBAL__sub_I_cdc_rx_buffer
                0x00081c64       0x1c C:\Users\TeamUiS\AppData\Local\Temp\VMBuilds\Circulation\arduino_due_x_dbg\Release/core.a(CDC.cpp.o)
 .text._ZN13PluggableUSB_12getInterfaceEPh
                0x00081c80       0x28 C:\Users\TeamUiS\AppData\Local\Temp\VMBuilds\Circulation\arduino_due_x_dbg\Release/core.a(PluggableUSB.cpp.o)
                0x00081c80                PluggableUSB_::getInterface(unsigned char*)
 .text._ZN13PluggableUSB_13getDescriptorER8USBSetup
                0x00081ca8       0x1c C:\Users\TeamUiS\AppData\Local\Temp\VMBuilds\Circulation\arduino_due_x_dbg\Release/core.a(PluggableUSB.cpp.o)
                0x00081ca8                PluggableUSB_::getDescriptor(USBSetup&)
 .text._ZN13PluggableUSB_12getShortNameEPc
                0x00081cc4       0x1c C:\Users\TeamUiS\AppData\Local\Temp\VMBuilds\Circulation\arduino_due_x_dbg\Release/core.a(PluggableUSB.cpp.o)
                0x00081cc4                PluggableUSB_::getShortName(char*)
 .text._ZN13PluggableUSB_5setupER8USBSetup
                0x00081ce0       0x20 C:\Users\TeamUiS\AppData\Local\Temp\VMBuilds\Circulation\arduino_due_x_dbg\Release/core.a(PluggableUSB.cpp.o)
                0x00081ce0                PluggableUSB_::setup(USBSetup&)
 .text._Z12PluggableUSBv
                0x00081d00       0x28 C:\Users\TeamUiS\AppData\Local\Temp\VMBuilds\Circulation\arduino_due_x_dbg\Release/core.a(PluggableUSB.cpp.o)
                0x00081d00                PluggableUSB()
 .text.TimeTick_Increment
                0x00081d28       0x10 C:\Users\TeamUiS\AppData\Local\arduino15\packages\arduino\hardware\sam\1.6.11\variants\arduino_due_x/libsam_sam3x8e_gcc_rel.a(timetick.o)
                0x00081d28                TimeTick_Increment
 .text.GetTickCount
                0x00081d38        0xc C:\Users\TeamUiS\AppData\Local\arduino15\packages\arduino\hardware\sam\1.6.11\variants\arduino_due_x/libsam_sam3x8e_gcc_rel.a(timetick.o)
                0x00081d38                GetTickCount
 .text.WDT_Disable
                0x00081d44        0x8 C:\Users\TeamUiS\AppData\Local\arduino15\packages\arduino\hardware\sam\1.6.11\variants\arduino_due_x/libsam_sam3x8e_gcc_rel.a(wdt.o)
                0x00081d44                WDT_Disable
 .text.UDD_SetStack
                0x00081d4c        0xc C:\Users\TeamUiS\AppData\Local\arduino15\packages\arduino\hardware\sam\1.6.11\variants\arduino_due_x/libsam_sam3x8e_gcc_rel.a(uotghs_device.o)
                0x00081d4c                UDD_SetStack
 .text.UDD_Init
                0x00081d58       0xd0 C:\Users\TeamUiS\AppData\Local\arduino15\packages\arduino\hardware\sam\1.6.11\variants\arduino_due_x/libsam_sam3x8e_gcc_rel.a(uotghs_device.o)
                0x00081d58                UDD_Init
 .text.UDD_Attach
                0x00081e28       0x50 C:\Users\TeamUiS\AppData\Local\arduino15\packages\arduino\hardware\sam\1.6.11\variants\arduino_due_x/libsam_sam3x8e_gcc_rel.a(uotghs_device.o)
                0x00081e28                UDD_Attach
 .text.UDD_InitEP
                0x00081e78       0x2c C:\Users\TeamUiS\AppData\Local\arduino15\packages\arduino\hardware\sam\1.6.11\variants\arduino_due_x/libsam_sam3x8e_gcc_rel.a(uotghs_device.o)
                0x00081e78                UDD_InitEP
 .text.UDD_InitEndpoints
                0x00081ea4       0x3c C:\Users\TeamUiS\AppData\Local\arduino15\packages\arduino\hardware\sam\1.6.11\variants\arduino_due_x/libsam_sam3x8e_gcc_rel.a(uotghs_device.o)
                0x00081ea4                UDD_InitEndpoints
 .text.UDD_WaitIN
                0x00081ee0       0x10 C:\Users\TeamUiS\AppData\Local\arduino15\packages\arduino\hardware\sam\1.6.11\variants\arduino_due_x/libsam_sam3x8e_gcc_rel.a(uotghs_device.o)
                0x00081ee0                UDD_WaitIN
 .text.UDD_WaitOUT
                0x00081ef0       0x10 C:\Users\TeamUiS\AppData\Local\arduino15\packages\arduino\hardware\sam\1.6.11\variants\arduino_due_x/libsam_sam3x8e_gcc_rel.a(uotghs_device.o)
                0x00081ef0                UDD_WaitOUT
 .text.UDD_ClearIN
                0x00081f00       0x18 C:\Users\TeamUiS\AppData\Local\arduino15\packages\arduino\hardware\sam\1.6.11\variants\arduino_due_x/libsam_sam3x8e_gcc_rel.a(uotghs_device.o)
                0x00081f00                UDD_ClearIN
 .text.UDD_ClearOUT
                0x00081f18       0x18 C:\Users\TeamUiS\AppData\Local\arduino15\packages\arduino\hardware\sam\1.6.11\variants\arduino_due_x/libsam_sam3x8e_gcc_rel.a(uotghs_device.o)
                0x00081f18                UDD_ClearOUT
 .text.UDD_ReceivedSetupInt
                0x00081f30       0x10 C:\Users\TeamUiS\AppData\Local\arduino15\packages\arduino\hardware\sam\1.6.11\variants\arduino_due_x/libsam_sam3x8e_gcc_rel.a(uotghs_device.o)
                0x00081f30                UDD_ReceivedSetupInt
 .text.UDD_ClearSetupInt
                0x00081f40       0x10 C:\Users\TeamUiS\AppData\Local\arduino15\packages\arduino\hardware\sam\1.6.11\variants\arduino_due_x/libsam_sam3x8e_gcc_rel.a(uotghs_device.o)
                0x00081f40                UDD_ClearSetupInt
 .text.UDD_Send
                0x00081f50       0x88 C:\Users\TeamUiS\AppData\Local\arduino15\packages\arduino\hardware\sam\1.6.11\variants\arduino_due_x/libsam_sam3x8e_gcc_rel.a(uotghs_device.o)
                0x00081f50                UDD_Send
 .text.UDD_Send8
                0x00081fd8       0x24 C:\Users\TeamUiS\AppData\Local\arduino15\packages\arduino\hardware\sam\1.6.11\variants\arduino_due_x/libsam_sam3x8e_gcc_rel.a(uotghs_device.o)
                0x00081fd8                UDD_Send8
 .text.UDD_Recv8
                0x00081ffc       0x28 C:\Users\TeamUiS\AppData\Local\arduino15\packages\arduino\hardware\sam\1.6.11\variants\arduino_due_x/libsam_sam3x8e_gcc_rel.a(uotghs_device.o)
                0x00081ffc                UDD_Recv8
 .text.UDD_Recv
                0x00082024       0x34 C:\Users\TeamUiS\AppData\Local\arduino15\packages\arduino\hardware\sam\1.6.11\variants\arduino_due_x/libsam_sam3x8e_gcc_rel.a(uotghs_device.o)
                0x00082024                UDD_Recv
 .text.UDD_Stall
                0x00082058       0x14 C:\Users\TeamUiS\AppData\Local\arduino15\packages\arduino\hardware\sam\1.6.11\variants\arduino_due_x/libsam_sam3x8e_gcc_rel.a(uotghs_device.o)
                0x00082058                UDD_Stall
 .text.UDD_FifoByteCount
                0x0008206c       0x14 C:\Users\TeamUiS\AppData\Local\arduino15\packages\arduino\hardware\sam\1.6.11\variants\arduino_due_x/libsam_sam3x8e_gcc_rel.a(uotghs_device.o)
                0x0008206c                UDD_FifoByteCount
 .text.UDD_ReleaseRX
                0x00082080       0x28 C:\Users\TeamUiS\AppData\Local\arduino15\packages\arduino\hardware\sam\1.6.11\variants\arduino_due_x/libsam_sam3x8e_gcc_rel.a(uotghs_device.o)
                0x00082080                UDD_ReleaseRX
 .text.UDD_ReleaseTX
                0x000820a8       0x28 C:\Users\TeamUiS\AppData\Local\arduino15\packages\arduino\hardware\sam\1.6.11\variants\arduino_due_x/libsam_sam3x8e_gcc_rel.a(uotghs_device.o)
                0x000820a8                UDD_ReleaseTX
 .text.UDD_SetAddress
                0x000820d0       0x20 C:\Users\TeamUiS\AppData\Local\arduino15\packages\arduino\hardware\sam\1.6.11\variants\arduino_due_x/libsam_sam3x8e_gcc_rel.a(uotghs_device.o)
                0x000820d0                UDD_SetAddress
 .text.__fpclassifyd
                0x000820f0       0x50 c:/users/teamuis/appdata/local/arduino15/packages/arduino/tools/arm-none-eabi-gcc/4.8.3-2014q1/bin/../lib/gcc/arm-none-eabi/4.8.3/../../../../arm-none-eabi/lib/armv7-m\libm.a(lib_a-s_fpclassify.o)
                0x000820f0                __fpclassifyd
 .text          0x00082140      0x370 c:/users/teamuis/appdata/local/arduino15/packages/arduino/tools/arm-none-eabi-gcc/4.8.3-2014q1/bin/../lib/gcc/arm-none-eabi/4.8.3/armv7-m\libgcc.a(_arm_addsubdf3.o)
                0x00082140                __aeabi_drsub
                0x00082148                __aeabi_dsub
                0x00082148                __subdf3
                0x0008214c                __aeabi_dadd
                0x0008214c                __adddf3
                0x000823c4                __floatunsidf
                0x000823c4                __aeabi_ui2d
                0x000823e4                __floatsidf
                0x000823e4                __aeabi_i2d
                0x00082408                __aeabi_f2d
                0x00082408                __extendsfdf2
                0x00082444                __floatundidf
                0x00082444                __aeabi_ul2d
                0x00082454                __floatdidf
                0x00082454                __aeabi_l2d
 .text          0x000824b0      0x424 c:/users/teamuis/appdata/local/arduino15/packages/arduino/tools/arm-none-eabi-gcc/4.8.3-2014q1/bin/../lib/gcc/arm-none-eabi/4.8.3/armv7-m\libgcc.a(_arm_muldivdf3.o)
                0x000824b0                __aeabi_dmul
                0x000824b0                __muldf3
                0x00082704                __divdf3
                0x00082704                __aeabi_ddiv
 .text          0x000828d4      0x110 c:/users/teamuis/appdata/local/arduino15/packages/arduino/tools/arm-none-eabi-gcc/4.8.3-2014q1/bin/../lib/gcc/arm-none-eabi/4.8.3/armv7-m\libgcc.a(_arm_cmpdf2.o)
                0x000828d4                __gtdf2
                0x000828d4                __gedf2
                0x000828dc                __ltdf2
                0x000828dc                __ledf2
                0x000828e4                __nedf2
                0x000828e4                __eqdf2
                0x000828e4                __cmpdf2
                0x00082960                __aeabi_cdrcmple
                0x00082970                __aeabi_cdcmpeq
                0x00082970                __aeabi_cdcmple
                0x00082980                __aeabi_dcmpeq
                0x00082994                __aeabi_dcmplt
                0x000829a8                __aeabi_dcmple
                0x000829bc                __aeabi_dcmpge
                0x000829d0                __aeabi_dcmpgt
 .text          0x000829e4       0x40 c:/users/teamuis/appdata/local/arduino15/packages/arduino/tools/arm-none-eabi-gcc/4.8.3-2014q1/bin/../lib/gcc/arm-none-eabi/4.8.3/armv7-m\libgcc.a(_arm_fixunsdfsi.o)
                0x000829e4                __aeabi_d2uiz
                0x000829e4                __fixunsdfsi
 .text          0x00082a24       0xa0 c:/users/teamuis/appdata/local/arduino15/packages/arduino/tools/arm-none-eabi-gcc/4.8.3-2014q1/bin/../lib/gcc/arm-none-eabi/4.8.3/armv7-m\libgcc.a(_arm_truncdfsf2.o)
                0x00082a24                __truncdfsf2
                0x00082a24                __aeabi_d2f
 .text          0x00082ac4      0x21c c:/users/teamuis/appdata/local/arduino15/packages/arduino/tools/arm-none-eabi-gcc/4.8.3-2014q1/bin/../lib/gcc/arm-none-eabi/4.8.3/armv7-m\libgcc.a(_arm_addsubsf3.o)
                0x00082ac4                __aeabi_frsub
                0x00082acc                __subsf3
                0x00082acc                __aeabi_fsub
                0x00082ad0                __aeabi_fadd
                0x00082ad0                __addsf3
                0x00082c30                __aeabi_ui2f
                0x00082c30                __floatunsisf
                0x00082c38                __aeabi_i2f
                0x00082c38                __floatsisf
                0x00082c54                __aeabi_ul2f
                0x00082c54                __floatundisf
                0x00082c64                __aeabi_l2f
                0x00082c64                __floatdisf
 .text          0x00082ce0      0x2a0 c:/users/teamuis/appdata/local/arduino15/packages/arduino/tools/arm-none-eabi-gcc/4.8.3-2014q1/bin/../lib/gcc/arm-none-eabi/4.8.3/armv7-m\libgcc.a(_arm_muldivsf3.o)
                0x00082ce0                __mulsf3
                0x00082ce0                __aeabi_fmul
                0x00082e48                __aeabi_fdiv
                0x00082e48                __divsf3
 .text          0x00082f80       0xec c:/users/teamuis/appdata/local/arduino15/packages/arduino/tools/arm-none-eabi-gcc/4.8.3-2014q1/bin/../lib/gcc/arm-none-eabi/4.8.3/armv7-m\libgcc.a(_arm_cmpsf2.o)
                0x00082f80                __gesf2
                0x00082f80                __gtsf2
                0x00082f88                __lesf2
                0x00082f88                __ltsf2
                0x00082f90                __nesf2
                0x00082f90                __eqsf2
                0x00082f90                __cmpsf2
                0x00082ff0                __aeabi_cfrcmple
                0x00082ff8                __aeabi_cfcmpeq
                0x00082ff8                __aeabi_cfcmple
                0x00083008                __aeabi_fcmpeq
                0x0008301c                __aeabi_fcmplt
                0x00083030                __aeabi_fcmple
                0x00083044                __aeabi_fcmpge
                0x00083058                __aeabi_fcmpgt
 .text.__libc_init_array
                0x0008306c       0x50 c:/users/teamuis/appdata/local/arduino15/packages/arduino/tools/arm-none-eabi-gcc/4.8.3-2014q1/bin/../lib/gcc/arm-none-eabi/4.8.3/../../../../arm-none-eabi/lib/armv7-m\libg.a(lib_a-init.o)
                0x0008306c                __libc_init_array
 .text.iprintf  0x000830bc       0x28 c:/users/teamuis/appdata/local/arduino15/packages/arduino/tools/arm-none-eabi-gcc/4.8.3-2014q1/bin/../lib/gcc/arm-none-eabi/4.8.3/../../../../arm-none-eabi/lib/armv7-m\libg.a(lib_a-iprintf.o)
                0x000830bc                iprintf
 .text.memset   0x000830e4       0x94 c:/users/teamuis/appdata/local/arduino15/packages/arduino/tools/arm-none-eabi-gcc/4.8.3-2014q1/bin/../lib/gcc/arm-none-eabi/4.8.3/../../../../arm-none-eabi/lib/armv7-m\libg.a(lib_a-memset.o)
                0x000830e4                memset
 .text.strlen   0x00083178       0x60 c:/users/teamuis/appdata/local/arduino15/packages/arduino/tools/arm-none-eabi-gcc/4.8.3-2014q1/bin/../lib/gcc/arm-none-eabi/4.8.3/../../../../arm-none-eabi/lib/armv7-m\libg.a(lib_a-strlen.o)
                0x00083178                strlen
 .text.kill     0x000831d8       0x10 c:/users/teamuis/appdata/local/arduino15/packages/arduino/tools/arm-none-eabi-gcc/4.8.3-2014q1/bin/../lib/gcc/arm-none-eabi/4.8.3/../../../../arm-none-eabi/lib/armv7-m\libg.a(lib_a-syskill.o)
                0x000831d8                kill
 .text.__sprint_r.part.0
                0x000831e8       0x78 c:/users/teamuis/appdata/local/arduino15/packages/arduino/tools/arm-none-eabi-gcc/4.8.3-2014q1/bin/../lib/gcc/arm-none-eabi/4.8.3/../../../../arm-none-eabi/lib/armv7-m\libg.a(lib_a-vfiprintf.o)
 .text._vfiprintf_r
                0x00083260      0xc54 c:/users/teamuis/appdata/local/arduino15/packages/arduino/tools/arm-none-eabi-gcc/4.8.3-2014q1/bin/../lib/gcc/arm-none-eabi/4.8.3/../../../../arm-none-eabi/lib/armv7-m\libg.a(lib_a-vfiprintf.o)
                0x00083260                _vfiprintf_r
 .text.__sbprintf
                0x00083eb4       0x7c c:/users/teamuis/appdata/local/arduino15/packages/arduino/tools/arm-none-eabi-gcc/4.8.3-2014q1/bin/../lib/gcc/arm-none-eabi/4.8.3/../../../../arm-none-eabi/lib/armv7-m\libg.a(lib_a-vfiprintf.o)
 .text.__swsetup_r
                0x00083f30       0xc4 c:/users/teamuis/appdata/local/arduino15/packages/arduino/tools/arm-none-eabi-gcc/4.8.3-2014q1/bin/../lib/gcc/arm-none-eabi/4.8.3/../../../../arm-none-eabi/lib/armv7-m\libg.a(lib_a-wsetup.o)
                0x00083f30                __swsetup_r
 .text.startup.register_fini
                0x00083ff4       0x14 c:/users/teamuis/appdata/local/arduino15/packages/arduino/tools/arm-none-eabi-gcc/4.8.3-2014q1/bin/../lib/gcc/arm-none-eabi/4.8.3/../../../../arm-none-eabi/lib/armv7-m\libg.a(lib_a-__call_atexit.o)
 .text.atexit   0x00084008        0xc c:/users/teamuis/appdata/local/arduino15/packages/arduino/tools/arm-none-eabi-gcc/4.8.3-2014q1/bin/../lib/gcc/arm-none-eabi/4.8.3/../../../../arm-none-eabi/lib/armv7-m\libg.a(lib_a-atexit.o)
                0x00084008                atexit
 .text.__sflush_r
                0x00084014      0x148 c:/users/teamuis/appdata/local/arduino15/packages/arduino/tools/arm-none-eabi-gcc/4.8.3-2014q1/bin/../lib/gcc/arm-none-eabi/4.8.3/../../../../arm-none-eabi/lib/armv7-m\libg.a(lib_a-fflush.o)
                0x00084014                __sflush_r
 .text._fflush_r
                0x0008415c       0x2c c:/users/teamuis/appdata/local/arduino15/packages/arduino/tools/arm-none-eabi-gcc/4.8.3-2014q1/bin/../lib/gcc/arm-none-eabi/4.8.3/../../../../arm-none-eabi/lib/armv7-m\libg.a(lib_a-fflush.o)
                0x0008415c                _fflush_r
 .text._cleanup_r
                0x00084188        0xc c:/users/teamuis/appdata/local/arduino15/packages/arduino/tools/arm-none-eabi-gcc/4.8.3-2014q1/bin/../lib/gcc/arm-none-eabi/4.8.3/../../../../arm-none-eabi/lib/armv7-m\libg.a(lib_a-findfp.o)
                0x00084188                _cleanup_r
 .text.__sinit  0x00084194       0xf4 c:/users/teamuis/appdata/local/arduino15/packages/arduino/tools/arm-none-eabi-gcc/4.8.3-2014q1/bin/../lib/gcc/arm-none-eabi/4.8.3/../../../../arm-none-eabi/lib/armv7-m\libg.a(lib_a-findfp.o)
                0x00084194                __sinit
 .text.__sfp_lock_acquire
                0x00084288        0x4 c:/users/teamuis/appdata/local/arduino15/packages/arduino/tools/arm-none-eabi-gcc/4.8.3-2014q1/bin/../lib/gcc/arm-none-eabi/4.8.3/../../../../arm-none-eabi/lib/armv7-m\libg.a(lib_a-findfp.o)
                0x00084288                __sfp_lock_acquire
 .text.__sfp_lock_release
                0x0008428c        0x4 c:/users/teamuis/appdata/local/arduino15/packages/arduino/tools/arm-none-eabi-gcc/4.8.3-2014q1/bin/../lib/gcc/arm-none-eabi/4.8.3/../../../../arm-none-eabi/lib/armv7-m\libg.a(lib_a-findfp.o)
                0x0008428c                __sfp_lock_release
 .text.__libc_fini_array
                0x00084290       0x30 c:/users/teamuis/appdata/local/arduino15/packages/arduino/tools/arm-none-eabi-gcc/4.8.3-2014q1/bin/../lib/gcc/arm-none-eabi/4.8.3/../../../../arm-none-eabi/lib/armv7-m\libg.a(lib_a-fini.o)
                0x00084290                __libc_fini_array
 .text._fputwc_r
                0x000842c0       0xc0 c:/users/teamuis/appdata/local/arduino15/packages/arduino/tools/arm-none-eabi-gcc/4.8.3-2014q1/bin/../lib/gcc/arm-none-eabi/4.8.3/../../../../arm-none-eabi/lib/armv7-m\libg.a(lib_a-fputwc.o)
                0x000842c0                _fputwc_r
 .text._malloc_trim_r
                0x00084380       0x9c c:/users/teamuis/appdata/local/arduino15/packages/arduino/tools/arm-none-eabi-gcc/4.8.3-2014q1/bin/../lib/gcc/arm-none-eabi/4.8.3/../../../../arm-none-eabi/lib/armv7-m\libg.a(lib_a-freer.o)
                0x00084380                _malloc_trim_r
 .text._free_r  0x0008441c      0x198 c:/users/teamuis/appdata/local/arduino15/packages/arduino/tools/arm-none-eabi-gcc/4.8.3-2014q1/bin/../lib/gcc/arm-none-eabi/4.8.3/../../../../arm-none-eabi/lib/armv7-m\libg.a(lib_a-freer.o)
                0x0008441c                _free_r
 .text.__sfvwrite_r
                0x000845b4      0x314 c:/users/teamuis/appdata/local/arduino15/packages/arduino/tools/arm-none-eabi-gcc/4.8.3-2014q1/bin/../lib/gcc/arm-none-eabi/4.8.3/../../../../arm-none-eabi/lib/armv7-m\libg.a(lib_a-fvwrite.o)
                0x000845b4                __sfvwrite_r
 .text._fwalk   0x000848c8       0x48 c:/users/teamuis/appdata/local/arduino15/packages/arduino/tools/arm-none-eabi-gcc/4.8.3-2014q1/bin/../lib/gcc/arm-none-eabi/4.8.3/../../../../arm-none-eabi/lib/armv7-m\libg.a(lib_a-fwalk.o)
                0x000848c8                _fwalk
 .text.__locale_charset
                0x00084910        0x8 c:/users/teamuis/appdata/local/arduino15/packages/arduino/tools/arm-none-eabi-gcc/4.8.3-2014q1/bin/../lib/gcc/arm-none-eabi/4.8.3/../../../../arm-none-eabi/lib/armv7-m\libg.a(lib_a-locale.o)
                0x00084910                __locale_charset
 .text.__locale_mb_cur_max
                0x00084918        0xc c:/users/teamuis/appdata/local/arduino15/packages/arduino/tools/arm-none-eabi-gcc/4.8.3-2014q1/bin/../lib/gcc/arm-none-eabi/4.8.3/../../../../arm-none-eabi/lib/armv7-m\libg.a(lib_a-locale.o)
                0x00084918                __locale_mb_cur_max
 .text.__smakebuf_r
                0x00084924       0xe0 c:/users/teamuis/appdata/local/arduino15/packages/arduino/tools/arm-none-eabi-gcc/4.8.3-2014q1/bin/../lib/gcc/arm-none-eabi/4.8.3/../../../../arm-none-eabi/lib/armv7-m\libg.a(lib_a-makebuf.o)
                0x00084924                __smakebuf_r
 .text._malloc_r
                0x00084a04      0x538 c:/users/teamuis/appdata/local/arduino15/packages/arduino/tools/arm-none-eabi-gcc/4.8.3-2014q1/bin/../lib/gcc/arm-none-eabi/4.8.3/../../../../arm-none-eabi/lib/armv7-m\libg.a(lib_a-mallocr.o)
                0x00084a04                _malloc_r
 .text.memchr   0x00084f3c       0x94 c:/users/teamuis/appdata/local/arduino15/packages/arduino/tools/arm-none-eabi-gcc/4.8.3-2014q1/bin/../lib/gcc/arm-none-eabi/4.8.3/../../../../arm-none-eabi/lib/armv7-m\libg.a(lib_a-memchr-stub.o)
                0x00084f3c                memchr
 .text          0x00084fd0       0xec c:/users/teamuis/appdata/local/arduino15/packages/arduino/tools/arm-none-eabi-gcc/4.8.3-2014q1/bin/../lib/gcc/arm-none-eabi/4.8.3/../../../../arm-none-eabi/lib/armv7-m\libg.a(lib_a-memcpy.o)
                0x00084fd0                memcpy
 .text.memmove  0x000850bc       0xcc c:/users/teamuis/appdata/local/arduino15/packages/arduino/tools/arm-none-eabi-gcc/4.8.3-2014q1/bin/../lib/gcc/arm-none-eabi/4.8.3/../../../../arm-none-eabi/lib/armv7-m\libg.a(lib_a-memmove.o)
                0x000850bc                memmove
 .text.__malloc_lock
                0x00085188        0x4 c:/users/teamuis/appdata/local/arduino15/packages/arduino/tools/arm-none-eabi-gcc/4.8.3-2014q1/bin/../lib/gcc/arm-none-eabi/4.8.3/../../../../arm-none-eabi/lib/armv7-m\libg.a(lib_a-mlock.o)
                0x00085188                __malloc_lock
 .text.__malloc_unlock
                0x0008518c        0x4 c:/users/teamuis/appdata/local/arduino15/packages/arduino/tools/arm-none-eabi-gcc/4.8.3-2014q1/bin/../lib/gcc/arm-none-eabi/4.8.3/../../../../arm-none-eabi/lib/armv7-m\libg.a(lib_a-mlock.o)
                0x0008518c                __malloc_unlock
 .text._realloc_r
                0x00085190      0x3c0 c:/users/teamuis/appdata/local/arduino15/packages/arduino/tools/arm-none-eabi-gcc/4.8.3-2014q1/bin/../lib/gcc/arm-none-eabi/4.8.3/../../../../arm-none-eabi/lib/armv7-m\libg.a(lib_a-reallocr.o)
                0x00085190                _realloc_r
 .text._sbrk_r  0x00085550       0x24 c:/users/teamuis/appdata/local/arduino15/packages/arduino/tools/arm-none-eabi-gcc/4.8.3-2014q1/bin/../lib/gcc/arm-none-eabi/4.8.3/../../../../arm-none-eabi/lib/armv7-m\libg.a(lib_a-sbrkr.o)
                0x00085550                _sbrk_r
 .text._kill_r  0x00085574       0x28 c:/users/teamuis/appdata/local/arduino15/packages/arduino/tools/arm-none-eabi-gcc/4.8.3-2014q1/bin/../lib/gcc/arm-none-eabi/4.8.3/../../../../arm-none-eabi/lib/armv7-m\libg.a(lib_a-signalr.o)
                0x00085574                _kill_r
 .text.__sread  0x0008559c       0x24 c:/users/teamuis/appdata/local/arduino15/packages/arduino/tools/arm-none-eabi-gcc/4.8.3-2014q1/bin/../lib/gcc/arm-none-eabi/4.8.3/../../../../arm-none-eabi/lib/armv7-m\libg.a(lib_a-stdio.o)
                0x0008559c                __sread
 .text.__swrite
                0x000855c0       0x38 c:/users/teamuis/appdata/local/arduino15/packages/arduino/tools/arm-none-eabi-gcc/4.8.3-2014q1/bin/../lib/gcc/arm-none-eabi/4.8.3/../../../../arm-none-eabi/lib/armv7-m\libg.a(lib_a-stdio.o)
                0x000855c0                __swrite
 .text.__sseek  0x000855f8       0x20 c:/users/teamuis/appdata/local/arduino15/packages/arduino/tools/arm-none-eabi-gcc/4.8.3-2014q1/bin/../lib/gcc/arm-none-eabi/4.8.3/../../../../arm-none-eabi/lib/armv7-m\libg.a(lib_a-stdio.o)
                0x000855f8                __sseek
 .text.__sclose
                0x00085618        0x8 c:/users/teamuis/appdata/local/arduino15/packages/arduino/tools/arm-none-eabi-gcc/4.8.3-2014q1/bin/../lib/gcc/arm-none-eabi/4.8.3/../../../../arm-none-eabi/lib/armv7-m\libg.a(lib_a-stdio.o)
                0x00085618                __sclose
 .text.__swbuf_r
                0x00085620       0xa8 c:/users/teamuis/appdata/local/arduino15/packages/arduino/tools/arm-none-eabi-gcc/4.8.3-2014q1/bin/../lib/gcc/arm-none-eabi/4.8.3/../../../../arm-none-eabi/lib/armv7-m\libg.a(lib_a-wbuf.o)
                0x00085620                __swbuf_r
 .text._wcrtomb_r
                0x000856c8       0x50 c:/users/teamuis/appdata/local/arduino15/packages/arduino/tools/arm-none-eabi-gcc/4.8.3-2014q1/bin/../lib/gcc/arm-none-eabi/4.8.3/../../../../arm-none-eabi/lib/armv7-m\libg.a(lib_a-wcrtomb.o)
                0x000856c8                _wcrtomb_r
 .text.__ascii_wctomb
                0x00085718       0x1c c:/users/teamuis/appdata/local/arduino15/packages/arduino/tools/arm-none-eabi-gcc/4.8.3-2014q1/bin/../lib/gcc/arm-none-eabi/4.8.3/../../../../arm-none-eabi/lib/armv7-m\libg.a(lib_a-wctomb_r.o)
                0x00085718                __ascii_wctomb
 .text._write_r
                0x00085734       0x28 c:/users/teamuis/appdata/local/arduino15/packages/arduino/tools/arm-none-eabi-gcc/4.8.3-2014q1/bin/../lib/gcc/arm-none-eabi/4.8.3/../../../../arm-none-eabi/lib/armv7-m\libg.a(lib_a-writer.o)
                0x00085734                _write_r
 .text.__register_exitproc
                0x0008575c       0xa8 c:/users/teamuis/appdata/local/arduino15/packages/arduino/tools/arm-none-eabi-gcc/4.8.3-2014q1/bin/../lib/gcc/arm-none-eabi/4.8.3/../../../../arm-none-eabi/lib/armv7-m\libg.a(lib_a-__atexit.o)
                0x0008575c                __register_exitproc
 .text._close_r
                0x00085804       0x24 c:/users/teamuis/appdata/local/arduino15/packages/arduino/tools/arm-none-eabi-gcc/4.8.3-2014q1/bin/../lib/gcc/arm-none-eabi/4.8.3/../../../../arm-none-eabi/lib/armv7-m\libg.a(lib_a-closer.o)
                0x00085804                _close_r
 .text._fclose_r
                0x00085828       0x80 c:/users/teamuis/appdata/local/arduino15/packages/arduino/tools/arm-none-eabi-gcc/4.8.3-2014q1/bin/../lib/gcc/arm-none-eabi/4.8.3/../../../../arm-none-eabi/lib/armv7-m\libg.a(lib_a-fclose.o)
                0x00085828                _fclose_r
 .text.fclose   0x000858a8       0x10 c:/users/teamuis/appdata/local/arduino15/packages/arduino/tools/arm-none-eabi-gcc/4.8.3-2014q1/bin/../lib/gcc/arm-none-eabi/4.8.3/../../../../arm-none-eabi/lib/armv7-m\libg.a(lib_a-fclose.o)
                0x000858a8                fclose
 .text._fstat_r
                0x000858b8       0x28 c:/users/teamuis/appdata/local/arduino15/packages/arduino/tools/arm-none-eabi-gcc/4.8.3-2014q1/bin/../lib/gcc/arm-none-eabi/4.8.3/../../../../arm-none-eabi/lib/armv7-m\libg.a(lib_a-fstatr.o)
                0x000858b8                _fstat_r
 .text._isatty_r
                0x000858e0       0x24 c:/users/teamuis/appdata/local/arduino15/packages/arduino/tools/arm-none-eabi-gcc/4.8.3-2014q1/bin/../lib/gcc/arm-none-eabi/4.8.3/../../../../arm-none-eabi/lib/armv7-m\libg.a(lib_a-isattyr.o)
                0x000858e0                _isatty_r
 .text._lseek_r
                0x00085904       0x28 c:/users/teamuis/appdata/local/arduino15/packages/arduino/tools/arm-none-eabi-gcc/4.8.3-2014q1/bin/../lib/gcc/arm-none-eabi/4.8.3/../../../../arm-none-eabi/lib/armv7-m\libg.a(lib_a-lseekr.o)
                0x00085904                _lseek_r
 .text._read_r  0x0008592c       0x28 c:/users/teamuis/appdata/local/arduino15/packages/arduino/tools/arm-none-eabi-gcc/4.8.3-2014q1/bin/../lib/gcc/arm-none-eabi/4.8.3/../../../../arm-none-eabi/lib/armv7-m\libg.a(lib_a-readr.o)
                0x0008592c                _read_r
 .text          0x00085954       0x2c c:/users/teamuis/appdata/local/arduino15/packages/arduino/tools/arm-none-eabi-gcc/4.8.3-2014q1/bin/../lib/gcc/arm-none-eabi/4.8.3/armv7-m\libgcc.a(_aeabi_uldivmod.o)
                0x00085954                __aeabi_uldivmod
 .text          0x00085980       0x60 c:/users/teamuis/appdata/local/arduino15/packages/arduino/tools/arm-none-eabi-gcc/4.8.3-2014q1/bin/../lib/gcc/arm-none-eabi/4.8.3/armv7-m\libgcc.a(bpabi.o)
                0x00085980                __gnu_ldivmod_helper
                0x000859b0                __gnu_uldivmod_helper
 .text          0x000859e0        0x4 c:/users/teamuis/appdata/local/arduino15/packages/arduino/tools/arm-none-eabi-gcc/4.8.3-2014q1/bin/../lib/gcc/arm-none-eabi/4.8.3/armv7-m\libgcc.a(_dvmd_tls.o)
                0x000859e0                __aeabi_idiv0
                0x000859e0                __aeabi_ldiv0
 .text          0x000859e4      0x2a0 c:/users/teamuis/appdata/local/arduino15/packages/arduino/tools/arm-none-eabi-gcc/4.8.3-2014q1/bin/../lib/gcc/arm-none-eabi/4.8.3/armv7-m\libgcc.a(_divdi3.o)
                0x000859e4                __divdi3
 .text          0x00085c84      0x290 c:/users/teamuis/appdata/local/arduino15/packages/arduino/tools/arm-none-eabi-gcc/4.8.3-2014q1/bin/../lib/gcc/arm-none-eabi/4.8.3/armv7-m\libgcc.a(_udivdi3.o)
                0x00085c84                __udivdi3
 *(.glue_7t)
 .glue_7t       0x00000000        0x0 linker stubs
 *(.glue_7)
 .glue_7        0x00000000        0x0 linker stubs
 *(.rodata .rodata* .gnu.linkonce.r.*)
 .rodata.str1.1
                0x00085f14        0x6 C:\Users\TeamUiS\AppData\Local\Temp\VMBuilds\Circulation\arduino_due_x_dbg\Release\Circulation.cpp.o
 *fill*         0x00085f1a        0x2 
 .rodata.g_APinDescription
                0x00085f1c      0xa2c C:\Users\TeamUiS\AppData\Local\Temp\VMBuilds\Circulation\arduino_due_x_dbg\Release\variant\variant.cpp.o
                0x00085f1c                g_APinDescription
 .rodata        0x00086948       0x40 C:\Users\TeamUiS\AppData\Local\arduino15\packages\arduino\hardware\sam\1.6.11\variants\arduino_due_x/libsam_sam3x8e_gcc_rel.a(adc.o)
 .rodata.str1.1
                0x00086988       0x19 C:\Users\TeamUiS\AppData\Local\Temp\VMBuilds\Circulation\arduino_due_x_dbg\Release/core.a(syscalls_sam3.c.o)
 .rodata.str1.1
                0x000869a1        0xf C:\Users\TeamUiS\AppData\Local\Temp\VMBuilds\Circulation\arduino_due_x_dbg\Release/core.a(Print.cpp.o)
 .rodata._ZTV9UARTClass
                0x000869b0       0x30 C:\Users\TeamUiS\AppData\Local\Temp\VMBuilds\Circulation\arduino_due_x_dbg\Release/core.a(UARTClass.cpp.o)
                0x000869b0                vtable for UARTClass
 .rodata._ZTV10USARTClass
                0x000869e0       0x30 C:\Users\TeamUiS\AppData\Local\Temp\VMBuilds\Circulation\arduino_due_x_dbg\Release/core.a(USARTClass.cpp.o)
                0x000869e0                vtable for USARTClass
 .rodata.STRING_PRODUCT
                0x00086a10        0xc C:\Users\TeamUiS\AppData\Local\Temp\VMBuilds\Circulation\arduino_due_x_dbg\Release/core.a(USBCore.cpp.o)
                0x00086a10                STRING_PRODUCT
 .rodata.USB_DeviceDescriptor
                0x00086a1c       0x12 C:\Users\TeamUiS\AppData\Local\Temp\VMBuilds\Circulation\arduino_due_x_dbg\Release/core.a(USBCore.cpp.o)
                0x00086a1c                USB_DeviceDescriptor
 .rodata.STRING_LANGUAGE
                0x00086a2e        0x4 C:\Users\TeamUiS\AppData\Local\Temp\VMBuilds\Circulation\arduino_due_x_dbg\Release/core.a(USBCore.cpp.o)
                0x00086a2e                STRING_LANGUAGE
 .rodata._ZL18test_packet_buffer
                0x00086a32       0x35 C:\Users\TeamUiS\AppData\Local\Temp\VMBuilds\Circulation\arduino_due_x_dbg\Release/core.a(USBCore.cpp.o)
 .rodata.STRING_MANUFACTURER
                0x00086a67        0xc C:\Users\TeamUiS\AppData\Local\Temp\VMBuilds\Circulation\arduino_due_x_dbg\Release/core.a(USBCore.cpp.o)
                0x00086a67                STRING_MANUFACTURER
 .rodata.USB_DeviceDescriptorA
                0x00086a73       0x12 C:\Users\TeamUiS\AppData\Local\Temp\VMBuilds\Circulation\arduino_due_x_dbg\Release/core.a(USBCore.cpp.o)
                0x00086a73                USB_DeviceDescriptorA
 .rodata._ZL19USB_DeviceQualifier
                0x00086a85        0x9 C:\Users\TeamUiS\AppData\Local\Temp\VMBuilds\Circulation\arduino_due_x_dbg\Release/core.a(USBCore.cpp.o)
 *fill*         0x00086a8e        0x2 
 .rodata._ZTV7Serial_
                0x00086a90       0x28 C:\Users\TeamUiS\AppData\Local\Temp\VMBuilds\Circulation\arduino_due_x_dbg\Release/core.a(CDC.cpp.o)
                0x00086a90                vtable for Serial_
 .rodata._ZL18_cdcOtherInterface
                0x00086ab8       0x42 C:\Users\TeamUiS\AppData\Local\Temp\VMBuilds\Circulation\arduino_due_x_dbg\Release/core.a(CDC.cpp.o)
 .rodata._ZL13_cdcInterface
                0x00086afa       0x42 C:\Users\TeamUiS\AppData\Local\Temp\VMBuilds\Circulation\arduino_due_x_dbg\Release/core.a(CDC.cpp.o)
 .rodata.str1.4
                0x00086b3c        0x2 c:/users/teamuis/appdata/local/arduino15/packages/arduino/tools/arm-none-eabi-gcc/4.8.3-2014q1/bin/../lib/gcc/arm-none-eabi/4.8.3/../../../../arm-none-eabi/lib/armv7-m\libg.a(lib_a-impure.o)
                                  0x4 (size before relaxing)
 *fill*         0x00086b3e        0x2 
 .rodata._global_impure_ptr
                0x00086b40        0x4 c:/users/teamuis/appdata/local/arduino15/packages/arduino/tools/arm-none-eabi-gcc/4.8.3-2014q1/bin/../lib/gcc/arm-none-eabi/4.8.3/../../../../arm-none-eabi/lib/armv7-m\libg.a(lib_a-impure.o)
                0x00086b40                _global_impure_ptr
 .rodata.blanks.6717
                0x00086b44       0x10 c:/users/teamuis/appdata/local/arduino15/packages/arduino/tools/arm-none-eabi-gcc/4.8.3-2014q1/bin/../lib/gcc/arm-none-eabi/4.8.3/../../../../arm-none-eabi/lib/armv7-m\libg.a(lib_a-vfiprintf.o)
 .rodata.str1.4
                0x00086b54       0x30 c:/users/teamuis/appdata/local/arduino15/packages/arduino/tools/arm-none-eabi-gcc/4.8.3-2014q1/bin/../lib/gcc/arm-none-eabi/4.8.3/../../../../arm-none-eabi/lib/armv7-m\libg.a(lib_a-vfiprintf.o)
 .rodata.zeroes.6718
                0x00086b84       0x10 c:/users/teamuis/appdata/local/arduino15/packages/arduino/tools/arm-none-eabi-gcc/4.8.3-2014q1/bin/../lib/gcc/arm-none-eabi/4.8.3/../../../../arm-none-eabi/lib/armv7-m\libg.a(lib_a-vfiprintf.o)
 *(.ARM.extab* .gnu.linkonce.armextab.*)
                0x00086b94                . = ALIGN (0x4)
 *(.init)
 .init          0x00086b94        0x4 c:/users/teamuis/appdata/local/arduino15/packages/arduino/tools/arm-none-eabi-gcc/4.8.3-2014q1/bin/../lib/gcc/arm-none-eabi/4.8.3/armv7-m/crti.o
                0x00086b94                _init
 .init          0x00086b98        0x8 c:/users/teamuis/appdata/local/arduino15/packages/arduino/tools/arm-none-eabi-gcc/4.8.3-2014q1/bin/../lib/gcc/arm-none-eabi/4.8.3/armv7-m/crtn.o
                0x00086ba0                . = ALIGN (0x4)
                0x00086ba0                __preinit_array_start = .
 *(.preinit_array)
                0x00086ba0                __preinit_array_end = .
                0x00086ba0                . = ALIGN (0x4)
                0x00086ba0                __init_array_start = .
 *(SORT(.init_array.*))
 .init_array.00000
                0x00086ba0        0x4 c:/users/teamuis/appdata/local/arduino15/packages/arduino/tools/arm-none-eabi-gcc/4.8.3-2014q1/bin/../lib/gcc/arm-none-eabi/4.8.3/../../../../arm-none-eabi/lib/armv7-m\libg.a(lib_a-__call_atexit.o)
 *(.init_array)
 .init_array    0x00086ba4        0x4 c:/users/teamuis/appdata/local/arduino15/packages/arduino/tools/arm-none-eabi-gcc/4.8.3-2014q1/bin/../lib/gcc/arm-none-eabi/4.8.3/armv7-m/crtbegin.o
 .init_array    0x00086ba8        0x4 C:\Users\TeamUiS\AppData\Local\Temp\VMBuilds\Circulation\arduino_due_x_dbg\Release\variant\variant.cpp.o
 .init_array    0x00086bac        0x4 C:\Users\TeamUiS\AppData\Local\Temp\VMBuilds\Circulation\arduino_due_x_dbg\Release/core.a(USBCore.cpp.o)
 .init_array    0x00086bb0        0x4 C:\Users\TeamUiS\AppData\Local\Temp\VMBuilds\Circulation\arduino_due_x_dbg\Release/core.a(CDC.cpp.o)
                0x00086bb4                __init_array_end = .
                0x00086bb4                . = ALIGN (0x4)
 *crtbegin.o(.ctors)
 *(EXCLUDE_FILE(*crtend.o) .ctors)
 *(SORT(.ctors.*))
 *crtend.o(.ctors)
                0x00086bb4                . = ALIGN (0x4)
 *(.fini)
 .fini          0x00086bb4        0x4 c:/users/teamuis/appdata/local/arduino15/packages/arduino/tools/arm-none-eabi-gcc/4.8.3-2014q1/bin/../lib/gcc/arm-none-eabi/4.8.3/armv7-m/crti.o
                0x00086bb4                _fini
 .fini          0x00086bb8        0x8 c:/users/teamuis/appdata/local/arduino15/packages/arduino/tools/arm-none-eabi-gcc/4.8.3-2014q1/bin/../lib/gcc/arm-none-eabi/4.8.3/armv7-m/crtn.o
                0x00086bc0                . = ALIGN (0x4)
                0x00086bc0                __fini_array_start = .
 *(.fini_array)
 .fini_array    0x00086bc0        0x4 c:/users/teamuis/appdata/local/arduino15/packages/arduino/tools/arm-none-eabi-gcc/4.8.3-2014q1/bin/../lib/gcc/arm-none-eabi/4.8.3/armv7-m/crtbegin.o
 *(SORT(.fini_array.*))
                0x00086bc4                __fini_array_end = .
 *crtbegin.o(.dtors)
 *(EXCLUDE_FILE(*crtend.o) .dtors)
 *(SORT(.dtors.*))
 *crtend.o(.dtors)
                0x00086bc4                . = ALIGN (0x4)
                0x00086bc4                _efixed = .
                0x00086bc4                PROVIDE (__exidx_start, .)

.vfp11_veneer   0x00086bc4        0x0
 .vfp11_veneer  0x00000000        0x0 linker stubs

.v4_bx          0x00086bc4        0x0
 .v4_bx         0x00000000        0x0 linker stubs

.iplt           0x00086bc4        0x0
 .iplt          0x00000000        0x0 c:/users/teamuis/appdata/local/arduino15/packages/arduino/tools/arm-none-eabi-gcc/4.8.3-2014q1/bin/../lib/gcc/arm-none-eabi/4.8.3/armv7-m/crtbegin.o

.ARM.exidx      0x00086bc4        0x8
 *(.ARM.exidx* .gnu.linkonce.armexidx.*)
 .ARM.exidx     0x00086bc4        0x8 c:/users/teamuis/appdata/local/arduino15/packages/arduino/tools/arm-none-eabi-gcc/4.8.3-2014q1/bin/../lib/gcc/arm-none-eabi/4.8.3/armv7-m\libgcc.a(_divdi3.o)
 .ARM.exidx     0x00086bcc        0x0 c:/users/teamuis/appdata/local/arduino15/packages/arduino/tools/arm-none-eabi-gcc/4.8.3-2014q1/bin/../lib/gcc/arm-none-eabi/4.8.3/armv7-m\libgcc.a(_udivdi3.o)
                                  0x8 (size before relaxing)
                0x00086bcc                PROVIDE (__exidx_end, .)

.eh_frame       0x00086bcc        0x0
 .eh_frame      0x00086bcc        0x0 c:/users/teamuis/appdata/local/arduino15/packages/arduino/tools/arm-none-eabi-gcc/4.8.3-2014q1/bin/../lib/gcc/arm-none-eabi/4.8.3/armv7-m/crtbegin.o

.rel.dyn        0x00086bcc        0x0
 .rel.iplt      0x00000000        0x0 c:/users/teamuis/appdata/local/arduino15/packages/arduino/tools/arm-none-eabi-gcc/4.8.3-2014q1/bin/../lib/gcc/arm-none-eabi/4.8.3/armv7-m/crtbegin.o

.jcr            0x00086bcc        0x0
 .jcr           0x00086bcc        0x0 c:/users/teamuis/appdata/local/arduino15/packages/arduino/tools/arm-none-eabi-gcc/4.8.3-2014q1/bin/../lib/gcc/arm-none-eabi/4.8.3/armv7-m/crtbegin.o

.igot.plt       0x00086bcc        0x0
 .igot.plt      0x00000000        0x0 c:/users/teamuis/appdata/local/arduino15/packages/arduino/tools/arm-none-eabi-gcc/4.8.3-2014q1/bin/../lib/gcc/arm-none-eabi/4.8.3/armv7-m/crtbegin.o
                0x00086bcc                . = ALIGN (0x4)
                0x00086bcc                _etext = .

.relocate       0x20070000      0x8f4 load address 0x00086bcc
                0x20070000                . = ALIGN (0x4)
                0x20070000                _srelocate = .
 *(.ramfunc .ramfunc.*)
 .ramfunc       0x20070000       0x2c C:\Users\TeamUiS\AppData\Local\Temp\VMBuilds\Circulation\arduino_due_x_dbg\Release/core.a(Reset.cpp.o)
                0x20070000                banzai
 *(.data .data.*)
 .data.minimum_pressure
                0x2007002c        0x4 C:\Users\TeamUiS\AppData\Local\Temp\VMBuilds\Circulation\arduino_due_x_dbg\Release\Circulation.cpp.o
                0x2007002c                minimum_pressure
 .data.maximum_pressure
                0x20070030        0x4 C:\Users\TeamUiS\AppData\Local\Temp\VMBuilds\Circulation\arduino_due_x_dbg\Release\Circulation.cpp.o
                0x20070030                maximum_pressure
 .data.filterTimeConstant
                0x20070034        0x4 C:\Users\TeamUiS\AppData\Local\Temp\VMBuilds\Circulation\arduino_due_x_dbg\Release\Circulation.cpp.o
                0x20070034                filterTimeConstant
 .data.pressureSensor
                0x20070038        0x4 C:\Users\TeamUiS\AppData\Local\Temp\VMBuilds\Circulation\arduino_due_x_dbg\Release\Circulation.cpp.o
                0x20070038                pressureSensor
 .data.pump_rampUp_time
                0x2007003c        0x4 C:\Users\TeamUiS\AppData\Local\Temp\VMBuilds\Circulation\arduino_due_x_dbg\Release\Circulation.cpp.o
                0x2007003c                pump_rampUp_time
 .data.pump1Active
                0x20070040        0x1 C:\Users\TeamUiS\AppData\Local\Temp\VMBuilds\Circulation\arduino_due_x_dbg\Release\Circulation.cpp.o
                0x20070040                pump1Active
 *fill*         0x20070041        0x3 
 .data.switchTime
                0x20070044        0x4 C:\Users\TeamUiS\AppData\Local\Temp\VMBuilds\Circulation\arduino_due_x_dbg\Release\Circulation.cpp.o
                0x20070044                switchTime
 .data.SystemCoreClock
                0x20070048        0x4 C:\Users\TeamUiS\AppData\Local\arduino15\packages\arduino\hardware\sam\1.6.11\variants\arduino_due_x/libsam_sam3x8e_gcc_rel.a(system_sam3xa.o)
                0x20070048                SystemCoreClock
 .data.latestSelectedChannel.9384
                0x2007004c        0x4 C:\Users\TeamUiS\AppData\Local\Temp\VMBuilds\Circulation\arduino_due_x_dbg\Release/core.a(wiring_analog.c.o)
 .data._readResolution
                0x20070050        0x4 C:\Users\TeamUiS\AppData\Local\Temp\VMBuilds\Circulation\arduino_due_x_dbg\Release/core.a(wiring_analog.c.o)
 .data._ZL5ticks
                0x20070054        0x4 C:\Users\TeamUiS\AppData\Local\Temp\VMBuilds\Circulation\arduino_due_x_dbg\Release/core.a(Reset.cpp.o)
 .data.EndPoints
                0x20070058       0x28 C:\Users\TeamUiS\AppData\Local\Temp\VMBuilds\Circulation\arduino_due_x_dbg\Release/core.a(USBCore.cpp.o)
                0x20070058                EndPoints
 .data._ZL10breakValue
                0x20070080        0x4 C:\Users\TeamUiS\AppData\Local\Temp\VMBuilds\Circulation\arduino_due_x_dbg\Release/core.a(CDC.cpp.o)
 .data._ZL12_usbLineInfo
                0x20070084        0x8 C:\Users\TeamUiS\AppData\Local\Temp\VMBuilds\Circulation\arduino_due_x_dbg\Release/core.a(CDC.cpp.o)
 .data.g_interrupt_enabled
                0x2007008c        0x4 C:\Users\TeamUiS\AppData\Local\arduino15\packages\arduino\hardware\sam\1.6.11\variants\arduino_due_x/libsam_sam3x8e_gcc_rel.a(interrupt_sam_nvic.o)
                0x2007008c                g_interrupt_enabled
 .data.impure_data
                0x20070090      0x428 c:/users/teamuis/appdata/local/arduino15/packages/arduino/tools/arm-none-eabi-gcc/4.8.3-2014q1/bin/../lib/gcc/arm-none-eabi/4.8.3/../../../../arm-none-eabi/lib/armv7-m\libg.a(lib_a-impure.o)
 .data._impure_ptr
                0x200704b8        0x4 c:/users/teamuis/appdata/local/arduino15/packages/arduino/tools/arm-none-eabi-gcc/4.8.3-2014q1/bin/../lib/gcc/arm-none-eabi/4.8.3/../../../../arm-none-eabi/lib/armv7-m\libg.a(lib_a-impure.o)
                0x200704b8                _impure_ptr
 .data.lc_ctype_charset
                0x200704bc       0x20 c:/users/teamuis/appdata/local/arduino15/packages/arduino/tools/arm-none-eabi-gcc/4.8.3-2014q1/bin/../lib/gcc/arm-none-eabi/4.8.3/../../../../arm-none-eabi/lib/armv7-m\libg.a(lib_a-locale.o)
 .data.__mb_cur_max
                0x200704dc        0x4 c:/users/teamuis/appdata/local/arduino15/packages/arduino/tools/arm-none-eabi-gcc/4.8.3-2014q1/bin/../lib/gcc/arm-none-eabi/4.8.3/../../../../arm-none-eabi/lib/armv7-m\libg.a(lib_a-locale.o)
                0x200704dc                __mb_cur_max
 .data.__malloc_av_
                0x200704e0      0x408 c:/users/teamuis/appdata/local/arduino15/packages/arduino/tools/arm-none-eabi-gcc/4.8.3-2014q1/bin/../lib/gcc/arm-none-eabi/4.8.3/../../../../arm-none-eabi/lib/armv7-m\libg.a(lib_a-mallocr.o)
                0x200704e0                __malloc_av_
 .data.__malloc_trim_threshold
                0x200708e8        0x4 c:/users/teamuis/appdata/local/arduino15/packages/arduino/tools/arm-none-eabi-gcc/4.8.3-2014q1/bin/../lib/gcc/arm-none-eabi/4.8.3/../../../../arm-none-eabi/lib/armv7-m\libg.a(lib_a-mallocr.o)
                0x200708e8                __malloc_trim_threshold
 .data.__malloc_sbrk_base
                0x200708ec        0x4 c:/users/teamuis/appdata/local/arduino15/packages/arduino/tools/arm-none-eabi-gcc/4.8.3-2014q1/bin/../lib/gcc/arm-none-eabi/4.8.3/../../../../arm-none-eabi/lib/armv7-m\libg.a(lib_a-mallocr.o)
                0x200708ec                __malloc_sbrk_base
 .data.__wctomb
                0x200708f0        0x4 c:/users/teamuis/appdata/local/arduino15/packages/arduino/tools/arm-none-eabi-gcc/4.8.3-2014q1/bin/../lib/gcc/arm-none-eabi/4.8.3/../../../../arm-none-eabi/lib/armv7-m\libg.a(lib_a-wctomb_r.o)
                0x200708f0                __wctomb
                0x200708f4                . = ALIGN (0x4)
                0x200708f4                _erelocate = .

.bss            0x200708f4      0x868 load address 0x000874c0
                0x200708f4                . = ALIGN (0x4)
                0x200708f4                _sbss = .
                0x200708f4                _szero = .
 *(.bss .bss.*)
 .bss           0x200708f4       0x1c c:/users/teamuis/appdata/local/arduino15/packages/arduino/tools/arm-none-eabi-gcc/4.8.3-2014q1/bin/../lib/gcc/arm-none-eabi/4.8.3/armv7-m/crtbegin.o
 .bss.dataSampleInterval
                0x20070910        0x4 C:\Users\TeamUiS\AppData\Local\Temp\VMBuilds\Circulation\arduino_due_x_dbg\Release\Circulation.cpp.o
                0x20070910                dataSampleInterval
 .bss.pumpSwitchTimer
                0x20070914        0x4 C:\Users\TeamUiS\AppData\Local\Temp\VMBuilds\Circulation\arduino_due_x_dbg\Release\Circulation.cpp.o
                0x20070914                pumpSwitchTimer
 .bss.pressure  0x20070918        0x4 C:\Users\TeamUiS\AppData\Local\Temp\VMBuilds\Circulation\arduino_due_x_dbg\Release\Circulation.cpp.o
                0x20070918                pressure
 .bss.ms_start_loop_old
                0x2007091c        0x4 C:\Users\TeamUiS\AppData\Local\Temp\VMBuilds\Circulation\arduino_due_x_dbg\Release\Circulation.cpp.o
                0x2007091c                ms_start_loop_old
 .bss.pumpTimer
                0x20070920        0x4 C:\Users\TeamUiS\AppData\Local\Temp\VMBuilds\Circulation\arduino_due_x_dbg\Release\Circulation.cpp.o
                0x20070920                pumpTimer
 .bss.mode      0x20070924        0x4 C:\Users\TeamUiS\AppData\Local\Temp\VMBuilds\Circulation\arduino_due_x_dbg\Release\Circulation.cpp.o
                0x20070924                mode
 .bss.turnOnPump
                0x20070928        0x1 C:\Users\TeamUiS\AppData\Local\Temp\VMBuilds\Circulation\arduino_due_x_dbg\Release\Circulation.cpp.o
                0x20070928                turnOnPump
 *fill*         0x20070929        0x3 
 .bss.time_since_pump_start
                0x2007092c        0x4 C:\Users\TeamUiS\AppData\Local\Temp\VMBuilds\Circulation\arduino_due_x_dbg\Release\Circulation.cpp.o
                0x2007092c                time_since_pump_start
 .bss.m         0x20070930        0x4 C:\Users\TeamUiS\AppData\Local\Temp\VMBuilds\Circulation\arduino_due_x_dbg\Release\Circulation.cpp.o
                0x20070930                m
 .bss.ms_init   0x20070934        0x4 C:\Users\TeamUiS\AppData\Local\Temp\VMBuilds\Circulation\arduino_due_x_dbg\Release\Circulation.cpp.o
                0x20070934                ms_init
 .bss.pump_start_time
                0x20070938        0x4 C:\Users\TeamUiS\AppData\Local\Temp\VMBuilds\Circulation\arduino_due_x_dbg\Release\Circulation.cpp.o
                0x20070938                pump_start_time
 .bss.filtered_old
                0x2007093c        0x4 C:\Users\TeamUiS\AppData\Local\Temp\VMBuilds\Circulation\arduino_due_x_dbg\Release\Circulation.cpp.o
                0x2007093c                filtered_old
 .bss.result    0x20070940        0x4 C:\Users\TeamUiS\AppData\Local\Temp\VMBuilds\Circulation\arduino_due_x_dbg\Release\Circulation.cpp.o
                0x20070940                result
 .bss.endOfLoopTime
                0x20070944        0x4 C:\Users\TeamUiS\AppData\Local\Temp\VMBuilds\Circulation\arduino_due_x_dbg\Release\Circulation.cpp.o
                0x20070944                endOfLoopTime
 .bss.incomingOption
                0x20070948        0x1 C:\Users\TeamUiS\AppData\Local\Temp\VMBuilds\Circulation\arduino_due_x_dbg\Release\Circulation.cpp.o
                0x20070948                incomingOption
 *fill*         0x20070949        0x3 
 .bss.currentTime
                0x2007094c        0x4 C:\Users\TeamUiS\AppData\Local\Temp\VMBuilds\Circulation\arduino_due_x_dbg\Release\Circulation.cpp.o
                0x2007094c                currentTime
 .bss.tx_buffer2
                0x20070950       0x88 C:\Users\TeamUiS\AppData\Local\Temp\VMBuilds\Circulation\arduino_due_x_dbg\Release\variant\variant.cpp.o
                0x20070950                tx_buffer2
 .bss.tx_buffer1
                0x200709d8       0x88 C:\Users\TeamUiS\AppData\Local\Temp\VMBuilds\Circulation\arduino_due_x_dbg\Release\variant\variant.cpp.o
                0x200709d8                tx_buffer1
 .bss.Serial    0x20070a60       0x24 C:\Users\TeamUiS\AppData\Local\Temp\VMBuilds\Circulation\arduino_due_x_dbg\Release\variant\variant.cpp.o
                0x20070a60                Serial
 .bss.rx_buffer1
                0x20070a84       0x88 C:\Users\TeamUiS\AppData\Local\Temp\VMBuilds\Circulation\arduino_due_x_dbg\Release\variant\variant.cpp.o
                0x20070a84                rx_buffer1
 .bss.Serial1   0x20070b0c       0x28 C:\Users\TeamUiS\AppData\Local\Temp\VMBuilds\Circulation\arduino_due_x_dbg\Release\variant\variant.cpp.o
                0x20070b0c                Serial1
 .bss.Serial2   0x20070b34       0x28 C:\Users\TeamUiS\AppData\Local\Temp\VMBuilds\Circulation\arduino_due_x_dbg\Release\variant\variant.cpp.o
                0x20070b34                Serial2
 .bss.Serial3   0x20070b5c       0x28 C:\Users\TeamUiS\AppData\Local\Temp\VMBuilds\Circulation\arduino_due_x_dbg\Release\variant\variant.cpp.o
                0x20070b5c                Serial3
 .bss.tx_buffer3
                0x20070b84       0x88 C:\Users\TeamUiS\AppData\Local\Temp\VMBuilds\Circulation\arduino_due_x_dbg\Release\variant\variant.cpp.o
                0x20070b84                tx_buffer3
 .bss.tx_buffer4
                0x20070c0c       0x88 C:\Users\TeamUiS\AppData\Local\Temp\VMBuilds\Circulation\arduino_due_x_dbg\Release\variant\variant.cpp.o
                0x20070c0c                tx_buffer4
 .bss.g_pinStatus
                0x20070c94       0x4f C:\Users\TeamUiS\AppData\Local\Temp\VMBuilds\Circulation\arduino_due_x_dbg\Release\variant\variant.cpp.o
                0x20070c94                g_pinStatus
 *fill*         0x20070ce3        0x1 
 .bss.rx_buffer2
                0x20070ce4       0x88 C:\Users\TeamUiS\AppData\Local\Temp\VMBuilds\Circulation\arduino_due_x_dbg\Release\variant\variant.cpp.o
                0x20070ce4                rx_buffer2
 .bss.rx_buffer3
                0x20070d6c       0x88 C:\Users\TeamUiS\AppData\Local\Temp\VMBuilds\Circulation\arduino_due_x_dbg\Release\variant\variant.cpp.o
                0x20070d6c                rx_buffer3
 .bss.rx_buffer4
                0x20070df4       0x88 C:\Users\TeamUiS\AppData\Local\Temp\VMBuilds\Circulation\arduino_due_x_dbg\Release\variant\variant.cpp.o
                0x20070df4                rx_buffer4
 .bss.gpf_isr   0x20070e7c        0x4 C:\Users\TeamUiS\AppData\Local\arduino15\packages\arduino\hardware\sam\1.6.11\variants\arduino_due_x/libsam_sam3x8e_gcc_rel.a(uotghs.o)
                0x20070e7c                gpf_isr
 .bss.heap.6420
                0x20070e80        0x4 C:\Users\TeamUiS\AppData\Local\Temp\VMBuilds\Circulation\arduino_due_x_dbg\Release/core.a(syscalls_sam3.c.o)
 .bss._cmark    0x20070e84        0x2 C:\Users\TeamUiS\AppData\Local\Temp\VMBuilds\Circulation\arduino_due_x_dbg\Release/core.a(USBCore.cpp.o)
                0x20070e84                _cmark
 .bss._ZL14isEndpointHalt
                0x20070e86        0x1 C:\Users\TeamUiS\AppData\Local\Temp\VMBuilds\Circulation\arduino_due_x_dbg\Release/core.a(USBCore.cpp.o)
 *fill*         0x20070e87        0x1 
 .bss._cdcComposite
                0x20070e88        0x4 C:\Users\TeamUiS\AppData\Local\Temp\VMBuilds\Circulation\arduino_due_x_dbg\Release/core.a(USBCore.cpp.o)
                0x20070e88                _cdcComposite
 .bss._ZL21isRemoteWakeUpEnabled
                0x20070e8c        0x1 C:\Users\TeamUiS\AppData\Local\Temp\VMBuilds\Circulation\arduino_due_x_dbg\Release/core.a(USBCore.cpp.o)
 *fill*         0x20070e8d        0x3 
 .bss._usbInitialized
                0x20070e90        0x4 C:\Users\TeamUiS\AppData\Local\Temp\VMBuilds\Circulation\arduino_due_x_dbg\Release/core.a(USBCore.cpp.o)
                0x20070e90                _usbInitialized
 .bss.USBDevice
                0x20070e94        0x1 C:\Users\TeamUiS\AppData\Local\Temp\VMBuilds\Circulation\arduino_due_x_dbg\Release/core.a(USBCore.cpp.o)
                0x20070e94                USBDevice
 *fill*         0x20070e95        0x3 
 .bss._usbSetInterface
                0x20070e98        0x4 C:\Users\TeamUiS\AppData\Local\Temp\VMBuilds\Circulation\arduino_due_x_dbg\Release/core.a(USBCore.cpp.o)
                0x20070e98                _usbSetInterface
 .bss._cend     0x20070e9c        0x2 C:\Users\TeamUiS\AppData\Local\Temp\VMBuilds\Circulation\arduino_due_x_dbg\Release/core.a(USBCore.cpp.o)
                0x20070e9c                _cend
 *fill*         0x20070e9e        0x2 
 .bss._usbConfiguration
                0x20070ea0        0x4 C:\Users\TeamUiS\AppData\Local\Temp\VMBuilds\Circulation\arduino_due_x_dbg\Release/core.a(USBCore.cpp.o)
                0x20070ea0                _usbConfiguration
 .bss.cdc_rx_buffer
                0x20070ea4      0x208 C:\Users\TeamUiS\AppData\Local\Temp\VMBuilds\Circulation\arduino_due_x_dbg\Release/core.a(CDC.cpp.o)
                0x20070ea4                cdc_rx_buffer
 .bss._ZZN7Serial_6acceptEvE5guard
                0x200710ac        0x4 C:\Users\TeamUiS\AppData\Local\Temp\VMBuilds\Circulation\arduino_due_x_dbg\Release/core.a(CDC.cpp.o)
 .bss.SerialUSB
                0x200710b0       0x14 C:\Users\TeamUiS\AppData\Local\Temp\VMBuilds\Circulation\arduino_due_x_dbg\Release/core.a(CDC.cpp.o)
                0x200710b0                SerialUSB
 .bss._ZZ12PluggableUSBvE3obj
                0x200710c4        0x8 C:\Users\TeamUiS\AppData\Local\Temp\VMBuilds\Circulation\arduino_due_x_dbg\Release/core.a(PluggableUSB.cpp.o)
 .bss._ZGVZ12PluggableUSBvE3obj
                0x200710cc        0x4 C:\Users\TeamUiS\AppData\Local\Temp\VMBuilds\Circulation\arduino_due_x_dbg\Release/core.a(PluggableUSB.cpp.o)
 .bss._dwTickCount
                0x200710d0        0x4 C:\Users\TeamUiS\AppData\Local\arduino15\packages\arduino\hardware\sam\1.6.11\variants\arduino_due_x/libsam_sam3x8e_gcc_rel.a(timetick.o)
 .bss.ul_recv_fifo_ptr
                0x200710d4       0x28 C:\Users\TeamUiS\AppData\Local\arduino15\packages\arduino\hardware\sam\1.6.11\variants\arduino_due_x/libsam_sam3x8e_gcc_rel.a(uotghs_device.o)
 .bss.ul_send_fifo_ptr
                0x200710fc       0x28 C:\Users\TeamUiS\AppData\Local\arduino15\packages\arduino\hardware\sam\1.6.11\variants\arduino_due_x/libsam_sam3x8e_gcc_rel.a(uotghs_device.o)
 .bss.__malloc_max_total_mem
                0x20071124        0x4 c:/users/teamuis/appdata/local/arduino15/packages/arduino/tools/arm-none-eabi-gcc/4.8.3-2014q1/bin/../lib/gcc/arm-none-eabi/4.8.3/../../../../arm-none-eabi/lib/armv7-m\libg.a(lib_a-mallocr.o)
                0x20071124                __malloc_max_total_mem
 .bss.__malloc_max_sbrked_mem
                0x20071128        0x4 c:/users/teamuis/appdata/local/arduino15/packages/arduino/tools/arm-none-eabi-gcc/4.8.3-2014q1/bin/../lib/gcc/arm-none-eabi/4.8.3/../../../../arm-none-eabi/lib/armv7-m\libg.a(lib_a-mallocr.o)
                0x20071128                __malloc_max_sbrked_mem
 .bss.__malloc_top_pad
                0x2007112c        0x4 c:/users/teamuis/appdata/local/arduino15/packages/arduino/tools/arm-none-eabi-gcc/4.8.3-2014q1/bin/../lib/gcc/arm-none-eabi/4.8.3/../../../../arm-none-eabi/lib/armv7-m\libg.a(lib_a-mallocr.o)
                0x2007112c                __malloc_top_pad
 .bss.__malloc_current_mallinfo
                0x20071130       0x28 c:/users/teamuis/appdata/local/arduino15/packages/arduino/tools/arm-none-eabi-gcc/4.8.3-2014q1/bin/../lib/gcc/arm-none-eabi/4.8.3/../../../../arm-none-eabi/lib/armv7-m\libg.a(lib_a-mallocr.o)
                0x20071130                __malloc_current_mallinfo
 *(COMMON)
 COMMON         0x20071158        0x4 c:/users/teamuis/appdata/local/arduino15/packages/arduino/tools/arm-none-eabi-gcc/4.8.3-2014q1/bin/../lib/gcc/arm-none-eabi/4.8.3/../../../../arm-none-eabi/lib/armv7-m\libg.a(lib_a-reent.o)
                0x20071158                errno
                0x2007115c                . = ALIGN (0x4)
                0x2007115c                _ebss = .
                0x2007115c                _ezero = .
                0x2007115c                . = ALIGN (0x4)
                0x2007115c                _end = .

.stack_dummy    0x2007115c        0x0
 *(.stack*)
                0x20088000                __StackTop = (ORIGIN (ram) + 0x18000)
                0x20088000                __StackLimit = (__StackTop - SIZEOF (.stack_dummy))
                0x20088000                PROVIDE (_sstack, __StackLimit)
                0x20088000                PROVIDE (_estack, __StackTop)
OUTPUT(C:\Users\TeamUiS\AppData\Local\Temp\VMBuilds\Circulation\arduino_due_x_dbg\Release/Circulation.ino.elf elf32-littlearm)

.ARM.attributes
                0x00000000       0x29
 .ARM.attributes
                0x00000000       0x1d c:/users/teamuis/appdata/local/arduino15/packages/arduino/tools/arm-none-eabi-gcc/4.8.3-2014q1/bin/../lib/gcc/arm-none-eabi/4.8.3/armv7-m/crti.o
 .ARM.attributes
                0x0000001d       0x2d c:/users/teamuis/appdata/local/arduino15/packages/arduino/tools/arm-none-eabi-gcc/4.8.3-2014q1/bin/../lib/gcc/arm-none-eabi/4.8.3/armv7-m/crtbegin.o
 .ARM.attributes
                0x0000004a       0x33 C:\Users\TeamUiS\AppData\Local\Temp\VMBuilds\Circulation\arduino_due_x_dbg\Release\Circulation.cpp.o
 .ARM.attributes
                0x0000007d       0x33 C:\Users\TeamUiS\AppData\Local\Temp\VMBuilds\Circulation\arduino_due_x_dbg\Release\variant\variant.cpp.o
 .ARM.attributes
                0x000000b0       0x33 C:\Users\TeamUiS\AppData\Local\arduino15\packages\arduino\hardware\sam\1.6.11\variants\arduino_due_x/libsam_sam3x8e_gcc_rel.a(pio.o)
 .ARM.attributes
                0x000000e3       0x33 C:\Users\TeamUiS\AppData\Local\arduino15\packages\arduino\hardware\sam\1.6.11\variants\arduino_due_x/libsam_sam3x8e_gcc_rel.a(pmc.o)
 .ARM.attributes
                0x00000116       0x33 C:\Users\TeamUiS\AppData\Local\arduino15\packages\arduino\hardware\sam\1.6.11\variants\arduino_due_x/libsam_sam3x8e_gcc_rel.a(system_sam3xa.o)
 .ARM.attributes
                0x00000149       0x33 C:\Users\TeamUiS\AppData\Local\arduino15\packages\arduino\hardware\sam\1.6.11\variants\arduino_due_x/libsam_sam3x8e_gcc_rel.a(startup_sam3xa.o)
 .ARM.attributes
                0x0000017c       0x33 C:\Users\TeamUiS\AppData\Local\arduino15\packages\arduino\hardware\sam\1.6.11\variants\arduino_due_x/libsam_sam3x8e_gcc_rel.a(adc.o)
 .ARM.attributes
                0x000001af       0x33 C:\Users\TeamUiS\AppData\Local\arduino15\packages\arduino\hardware\sam\1.6.11\variants\arduino_due_x/libsam_sam3x8e_gcc_rel.a(uotghs.o)
 .ARM.attributes
                0x000001e2       0x33 C:\Users\TeamUiS\AppData\Local\Temp\VMBuilds\Circulation\arduino_due_x_dbg\Release/core.a(cortex_handlers.c.o)
 .ARM.attributes
                0x00000215       0x33 C:\Users\TeamUiS\AppData\Local\Temp\VMBuilds\Circulation\arduino_due_x_dbg\Release/core.a(hooks.c.o)
 .ARM.attributes
                0x00000248       0x33 C:\Users\TeamUiS\AppData\Local\Temp\VMBuilds\Circulation\arduino_due_x_dbg\Release/core.a(syscalls_sam3.c.o)
 .ARM.attributes
                0x0000027b       0x33 C:\Users\TeamUiS\AppData\Local\Temp\VMBuilds\Circulation\arduino_due_x_dbg\Release/core.a(wiring.c.o)
 .ARM.attributes
                0x000002ae       0x33 C:\Users\TeamUiS\AppData\Local\Temp\VMBuilds\Circulation\arduino_due_x_dbg\Release/core.a(wiring_analog.c.o)
 .ARM.attributes
                0x000002e1       0x33 C:\Users\TeamUiS\AppData\Local\Temp\VMBuilds\Circulation\arduino_due_x_dbg\Release/core.a(wiring_digital.c.o)
 .ARM.attributes
                0x00000314       0x33 C:\Users\TeamUiS\AppData\Local\Temp\VMBuilds\Circulation\arduino_due_x_dbg\Release/core.a(main.cpp.o)
 .ARM.attributes
                0x00000347       0x33 C:\Users\TeamUiS\AppData\Local\Temp\VMBuilds\Circulation\arduino_due_x_dbg\Release/core.a(Print.cpp.o)
 .ARM.attributes
                0x0000037a       0x33 C:\Users\TeamUiS\AppData\Local\Temp\VMBuilds\Circulation\arduino_due_x_dbg\Release/core.a(Reset.cpp.o)
 .ARM.attributes
                0x000003ad       0x33 C:\Users\TeamUiS\AppData\Local\Temp\VMBuilds\Circulation\arduino_due_x_dbg\Release/core.a(RingBuffer.cpp.o)
 .ARM.attributes
                0x000003e0       0x33 C:\Users\TeamUiS\AppData\Local\Temp\VMBuilds\Circulation\arduino_due_x_dbg\Release/core.a(UARTClass.cpp.o)
 .ARM.attributes
                0x00000413       0x33 C:\Users\TeamUiS\AppData\Local\Temp\VMBuilds\Circulation\arduino_due_x_dbg\Release/core.a(USARTClass.cpp.o)
 .ARM.attributes
                0x00000446       0x33 C:\Users\TeamUiS\AppData\Local\Temp\VMBuilds\Circulation\arduino_due_x_dbg\Release/core.a(watchdog.cpp.o)
 .ARM.attributes
                0x00000479       0x33 C:\Users\TeamUiS\AppData\Local\Temp\VMBuilds\Circulation\arduino_due_x_dbg\Release/core.a(USBCore.cpp.o)
 .ARM.attributes
                0x000004ac       0x33 C:\Users\TeamUiS\AppData\Local\Temp\VMBuilds\Circulation\arduino_due_x_dbg\Release/core.a(CDC.cpp.o)
 .ARM.attributes
                0x000004df       0x33 C:\Users\TeamUiS\AppData\Local\Temp\VMBuilds\Circulation\arduino_due_x_dbg\Release/core.a(PluggableUSB.cpp.o)
 .ARM.attributes
                0x00000512       0x33 C:\Users\TeamUiS\AppData\Local\arduino15\packages\arduino\hardware\sam\1.6.11\variants\arduino_due_x/libsam_sam3x8e_gcc_rel.a(timetick.o)
 .ARM.attributes
                0x00000545       0x33 C:\Users\TeamUiS\AppData\Local\arduino15\packages\arduino\hardware\sam\1.6.11\variants\arduino_due_x/libsam_sam3x8e_gcc_rel.a(wdt.o)
 .ARM.attributes
                0x00000578       0x33 C:\Users\TeamUiS\AppData\Local\arduino15\packages\arduino\hardware\sam\1.6.11\variants\arduino_due_x/libsam_sam3x8e_gcc_rel.a(interrupt_sam_nvic.o)
 .ARM.attributes
                0x000005ab       0x33 C:\Users\TeamUiS\AppData\Local\arduino15\packages\arduino\hardware\sam\1.6.11\variants\arduino_due_x/libsam_sam3x8e_gcc_rel.a(uotghs_device.o)
 .ARM.attributes
                0x000005de       0x2d c:/users/teamuis/appdata/local/arduino15/packages/arduino/tools/arm-none-eabi-gcc/4.8.3-2014q1/bin/../lib/gcc/arm-none-eabi/4.8.3/../../../../arm-none-eabi/lib/armv7-m\libm.a(lib_a-s_fpclassify.o)
 .ARM.attributes
                0x0000060b       0x1d c:/users/teamuis/appdata/local/arduino15/packages/arduino/tools/arm-none-eabi-gcc/4.8.3-2014q1/bin/../lib/gcc/arm-none-eabi/4.8.3/armv7-m\libgcc.a(_arm_addsubdf3.o)
 .ARM.attributes
                0x00000628       0x1d c:/users/teamuis/appdata/local/arduino15/packages/arduino/tools/arm-none-eabi-gcc/4.8.3-2014q1/bin/../lib/gcc/arm-none-eabi/4.8.3/armv7-m\libgcc.a(_arm_muldivdf3.o)
 .ARM.attributes
                0x00000645       0x1d c:/users/teamuis/appdata/local/arduino15/packages/arduino/tools/arm-none-eabi-gcc/4.8.3-2014q1/bin/../lib/gcc/arm-none-eabi/4.8.3/armv7-m\libgcc.a(_arm_cmpdf2.o)
 .ARM.attributes
                0x00000662       0x1d c:/users/teamuis/appdata/local/arduino15/packages/arduino/tools/arm-none-eabi-gcc/4.8.3-2014q1/bin/../lib/gcc/arm-none-eabi/4.8.3/armv7-m\libgcc.a(_arm_fixunsdfsi.o)
 .ARM.attributes
                0x0000067f       0x1d c:/users/teamuis/appdata/local/arduino15/packages/arduino/tools/arm-none-eabi-gcc/4.8.3-2014q1/bin/../lib/gcc/arm-none-eabi/4.8.3/armv7-m\libgcc.a(_arm_truncdfsf2.o)
 .ARM.attributes
                0x0000069c       0x1d c:/users/teamuis/appdata/local/arduino15/packages/arduino/tools/arm-none-eabi-gcc/4.8.3-2014q1/bin/../lib/gcc/arm-none-eabi/4.8.3/armv7-m\libgcc.a(_arm_addsubsf3.o)
 .ARM.attributes
                0x000006b9       0x1d c:/users/teamuis/appdata/local/arduino15/packages/arduino/tools/arm-none-eabi-gcc/4.8.3-2014q1/bin/../lib/gcc/arm-none-eabi/4.8.3/armv7-m\libgcc.a(_arm_muldivsf3.o)
 .ARM.attributes
                0x000006d6       0x1d c:/users/teamuis/appdata/local/arduino15/packages/arduino/tools/arm-none-eabi-gcc/4.8.3-2014q1/bin/../lib/gcc/arm-none-eabi/4.8.3/armv7-m\libgcc.a(_arm_cmpsf2.o)
 .ARM.attributes
                0x000006f3       0x2d c:/users/teamuis/appdata/local/arduino15/packages/arduino/tools/arm-none-eabi-gcc/4.8.3-2014q1/bin/../lib/gcc/arm-none-eabi/4.8.3/../../../../arm-none-eabi/lib/armv7-m\libg.a(lib_a-impure.o)
 .ARM.attributes
                0x00000720       0x2d c:/users/teamuis/appdata/local/arduino15/packages/arduino/tools/arm-none-eabi-gcc/4.8.3-2014q1/bin/../lib/gcc/arm-none-eabi/4.8.3/../../../../arm-none-eabi/lib/armv7-m\libg.a(lib_a-init.o)
 .ARM.attributes
                0x0000074d       0x2d c:/users/teamuis/appdata/local/arduino15/packages/arduino/tools/arm-none-eabi-gcc/4.8.3-2014q1/bin/../lib/gcc/arm-none-eabi/4.8.3/../../../../arm-none-eabi/lib/armv7-m\libg.a(lib_a-iprintf.o)
 .ARM.attributes
                0x0000077a       0x2d c:/users/teamuis/appdata/local/arduino15/packages/arduino/tools/arm-none-eabi-gcc/4.8.3-2014q1/bin/../lib/gcc/arm-none-eabi/4.8.3/../../../../arm-none-eabi/lib/armv7-m\libg.a(lib_a-memset.o)
 .ARM.attributes
                0x000007a7       0x2d c:/users/teamuis/appdata/local/arduino15/packages/arduino/tools/arm-none-eabi-gcc/4.8.3-2014q1/bin/../lib/gcc/arm-none-eabi/4.8.3/../../../../arm-none-eabi/lib/armv7-m\libg.a(lib_a-strlen.o)
 .ARM.attributes
                0x000007d4       0x2d c:/users/teamuis/appdata/local/arduino15/packages/arduino/tools/arm-none-eabi-gcc/4.8.3-2014q1/bin/../lib/gcc/arm-none-eabi/4.8.3/../../../../arm-none-eabi/lib/armv7-m\libg.a(lib_a-syskill.o)
 .ARM.attributes
                0x00000801       0x2d c:/users/teamuis/appdata/local/arduino15/packages/arduino/tools/arm-none-eabi-gcc/4.8.3-2014q1/bin/../lib/gcc/arm-none-eabi/4.8.3/../../../../arm-none-eabi/lib/armv7-m\libg.a(lib_a-vfiprintf.o)
 .ARM.attributes
                0x0000082e       0x2d c:/users/teamuis/appdata/local/arduino15/packages/arduino/tools/arm-none-eabi-gcc/4.8.3-2014q1/bin/../lib/gcc/arm-none-eabi/4.8.3/../../../../arm-none-eabi/lib/armv7-m\libg.a(lib_a-wsetup.o)
 .ARM.attributes
                0x0000085b       0x2d c:/users/teamuis/appdata/local/arduino15/packages/arduino/tools/arm-none-eabi-gcc/4.8.3-2014q1/bin/../lib/gcc/arm-none-eabi/4.8.3/../../../../arm-none-eabi/lib/armv7-m\libg.a(lib_a-__call_atexit.o)
 .ARM.attributes
                0x00000888       0x2d c:/users/teamuis/appdata/local/arduino15/packages/arduino/tools/arm-none-eabi-gcc/4.8.3-2014q1/bin/../lib/gcc/arm-none-eabi/4.8.3/../../../../arm-none-eabi/lib/armv7-m\libg.a(lib_a-atexit.o)
 .ARM.attributes
                0x000008b5       0x2d c:/users/teamuis/appdata/local/arduino15/packages/arduino/tools/arm-none-eabi-gcc/4.8.3-2014q1/bin/../lib/gcc/arm-none-eabi/4.8.3/../../../../arm-none-eabi/lib/armv7-m\libg.a(lib_a-fflush.o)
 .ARM.attributes
                0x000008e2       0x2d c:/users/teamuis/appdata/local/arduino15/packages/arduino/tools/arm-none-eabi-gcc/4.8.3-2014q1/bin/../lib/gcc/arm-none-eabi/4.8.3/../../../../arm-none-eabi/lib/armv7-m\libg.a(lib_a-findfp.o)
 .ARM.attributes
                0x0000090f       0x2d c:/users/teamuis/appdata/local/arduino15/packages/arduino/tools/arm-none-eabi-gcc/4.8.3-2014q1/bin/../lib/gcc/arm-none-eabi/4.8.3/../../../../arm-none-eabi/lib/armv7-m\libg.a(lib_a-fini.o)
 .ARM.attributes
                0x0000093c       0x2d c:/users/teamuis/appdata/local/arduino15/packages/arduino/tools/arm-none-eabi-gcc/4.8.3-2014q1/bin/../lib/gcc/arm-none-eabi/4.8.3/../../../../arm-none-eabi/lib/armv7-m\libg.a(lib_a-fputwc.o)
 .ARM.attributes
                0x00000969       0x2d c:/users/teamuis/appdata/local/arduino15/packages/arduino/tools/arm-none-eabi-gcc/4.8.3-2014q1/bin/../lib/gcc/arm-none-eabi/4.8.3/../../../../arm-none-eabi/lib/armv7-m\libg.a(lib_a-freer.o)
 .ARM.attributes
                0x00000996       0x2d c:/users/teamuis/appdata/local/arduino15/packages/arduino/tools/arm-none-eabi-gcc/4.8.3-2014q1/bin/../lib/gcc/arm-none-eabi/4.8.3/../../../../arm-none-eabi/lib/armv7-m\libg.a(lib_a-fvwrite.o)
 .ARM.attributes
                0x000009c3       0x2d c:/users/teamuis/appdata/local/arduino15/packages/arduino/tools/arm-none-eabi-gcc/4.8.3-2014q1/bin/../lib/gcc/arm-none-eabi/4.8.3/../../../../arm-none-eabi/lib/armv7-m\libg.a(lib_a-fwalk.o)
 .ARM.attributes
                0x000009f0       0x2d c:/users/teamuis/appdata/local/arduino15/packages/arduino/tools/arm-none-eabi-gcc/4.8.3-2014q1/bin/../lib/gcc/arm-none-eabi/4.8.3/../../../../arm-none-eabi/lib/armv7-m\libg.a(lib_a-locale.o)
 .ARM.attributes
                0x00000a1d       0x2d c:/users/teamuis/appdata/local/arduino15/packages/arduino/tools/arm-none-eabi-gcc/4.8.3-2014q1/bin/../lib/gcc/arm-none-eabi/4.8.3/../../../../arm-none-eabi/lib/armv7-m\libg.a(lib_a-makebuf.o)
 .ARM.attributes
                0x00000a4a       0x2d c:/users/teamuis/appdata/local/arduino15/packages/arduino/tools/arm-none-eabi-gcc/4.8.3-2014q1/bin/../lib/gcc/arm-none-eabi/4.8.3/../../../../arm-none-eabi/lib/armv7-m\libg.a(lib_a-mallocr.o)
 .ARM.attributes
                0x00000a77       0x2d c:/users/teamuis/appdata/local/arduino15/packages/arduino/tools/arm-none-eabi-gcc/4.8.3-2014q1/bin/../lib/gcc/arm-none-eabi/4.8.3/../../../../arm-none-eabi/lib/armv7-m\libg.a(lib_a-memchr-stub.o)
 .ARM.attributes
                0x00000aa4       0x1b c:/users/teamuis/appdata/local/arduino15/packages/arduino/tools/arm-none-eabi-gcc/4.8.3-2014q1/bin/../lib/gcc/arm-none-eabi/4.8.3/../../../../arm-none-eabi/lib/armv7-m\libg.a(lib_a-memcpy.o)
 .ARM.attributes
                0x00000abf       0x2d c:/users/teamuis/appdata/local/arduino15/packages/arduino/tools/arm-none-eabi-gcc/4.8.3-2014q1/bin/../lib/gcc/arm-none-eabi/4.8.3/../../../../arm-none-eabi/lib/armv7-m\libg.a(lib_a-memmove.o)
 .ARM.attributes
                0x00000aec       0x2d c:/users/teamuis/appdata/local/arduino15/packages/arduino/tools/arm-none-eabi-gcc/4.8.3-2014q1/bin/../lib/gcc/arm-none-eabi/4.8.3/../../../../arm-none-eabi/lib/armv7-m\libg.a(lib_a-mlock.o)
 .ARM.attributes
                0x00000b19       0x2d c:/users/teamuis/appdata/local/arduino15/packages/arduino/tools/arm-none-eabi-gcc/4.8.3-2014q1/bin/../lib/gcc/arm-none-eabi/4.8.3/../../../../arm-none-eabi/lib/armv7-m\libg.a(lib_a-reallocr.o)
 .ARM.attributes
                0x00000b46       0x2d c:/users/teamuis/appdata/local/arduino15/packages/arduino/tools/arm-none-eabi-gcc/4.8.3-2014q1/bin/../lib/gcc/arm-none-eabi/4.8.3/../../../../arm-none-eabi/lib/armv7-m\libg.a(lib_a-sbrkr.o)
 .ARM.attributes
                0x00000b73       0x2d c:/users/teamuis/appdata/local/arduino15/packages/arduino/tools/arm-none-eabi-gcc/4.8.3-2014q1/bin/../lib/gcc/arm-none-eabi/4.8.3/../../../../arm-none-eabi/lib/armv7-m\libg.a(lib_a-signalr.o)
 .ARM.attributes
                0x00000ba0       0x2d c:/users/teamuis/appdata/local/arduino15/packages/arduino/tools/arm-none-eabi-gcc/4.8.3-2014q1/bin/../lib/gcc/arm-none-eabi/4.8.3/../../../../arm-none-eabi/lib/armv7-m\libg.a(lib_a-stdio.o)
 .ARM.attributes
                0x00000bcd       0x2d c:/users/teamuis/appdata/local/arduino15/packages/arduino/tools/arm-none-eabi-gcc/4.8.3-2014q1/bin/../lib/gcc/arm-none-eabi/4.8.3/../../../../arm-none-eabi/lib/armv7-m\libg.a(lib_a-wbuf.o)
 .ARM.attributes
                0x00000bfa       0x2d c:/users/teamuis/appdata/local/arduino15/packages/arduino/tools/arm-none-eabi-gcc/4.8.3-2014q1/bin/../lib/gcc/arm-none-eabi/4.8.3/../../../../arm-none-eabi/lib/armv7-m\libg.a(lib_a-wcrtomb.o)
 .ARM.attributes
                0x00000c27       0x2d c:/users/teamuis/appdata/local/arduino15/packages/arduino/tools/arm-none-eabi-gcc/4.8.3-2014q1/bin/../lib/gcc/arm-none-eabi/4.8.3/../../../../arm-none-eabi/lib/armv7-m\libg.a(lib_a-wctomb_r.o)
 .ARM.attributes
                0x00000c54       0x2d c:/users/teamuis/appdata/local/arduino15/packages/arduino/tools/arm-none-eabi-gcc/4.8.3-2014q1/bin/../lib/gcc/arm-none-eabi/4.8.3/../../../../arm-none-eabi/lib/armv7-m\libg.a(lib_a-writer.o)
 .ARM.attributes
                0x00000c81       0x2d c:/users/teamuis/appdata/local/arduino15/packages/arduino/tools/arm-none-eabi-gcc/4.8.3-2014q1/bin/../lib/gcc/arm-none-eabi/4.8.3/../../../../arm-none-eabi/lib/armv7-m\libg.a(lib_a-__atexit.o)
 .ARM.attributes
                0x00000cae       0x2d c:/users/teamuis/appdata/local/arduino15/packages/arduino/tools/arm-none-eabi-gcc/4.8.3-2014q1/bin/../lib/gcc/arm-none-eabi/4.8.3/../../../../arm-none-eabi/lib/armv7-m\libg.a(lib_a-closer.o)
 .ARM.attributes
                0x00000cdb       0x2d c:/users/teamuis/appdata/local/arduino15/packages/arduino/tools/arm-none-eabi-gcc/4.8.3-2014q1/bin/../lib/gcc/arm-none-eabi/4.8.3/../../../../arm-none-eabi/lib/armv7-m\libg.a(lib_a-fclose.o)
 .ARM.attributes
                0x00000d08       0x2d c:/users/teamuis/appdata/local/arduino15/packages/arduino/tools/arm-none-eabi-gcc/4.8.3-2014q1/bin/../lib/gcc/arm-none-eabi/4.8.3/../../../../arm-none-eabi/lib/armv7-m\libg.a(lib_a-fstatr.o)
 .ARM.attributes
                0x00000d35       0x2d c:/users/teamuis/appdata/local/arduino15/packages/arduino/tools/arm-none-eabi-gcc/4.8.3-2014q1/bin/../lib/gcc/arm-none-eabi/4.8.3/../../../../arm-none-eabi/lib/armv7-m\libg.a(lib_a-isattyr.o)
 .ARM.attributes
                0x00000d62       0x2d c:/users/teamuis/appdata/local/arduino15/packages/arduino/tools/arm-none-eabi-gcc/4.8.3-2014q1/bin/../lib/gcc/arm-none-eabi/4.8.3/../../../../arm-none-eabi/lib/armv7-m\libg.a(lib_a-lseekr.o)
 .ARM.attributes
                0x00000d8f       0x2d c:/users/teamuis/appdata/local/arduino15/packages/arduino/tools/arm-none-eabi-gcc/4.8.3-2014q1/bin/../lib/gcc/arm-none-eabi/4.8.3/../../../../arm-none-eabi/lib/armv7-m\libg.a(lib_a-readr.o)
 .ARM.attributes
                0x00000dbc       0x2d c:/users/teamuis/appdata/local/arduino15/packages/arduino/tools/arm-none-eabi-gcc/4.8.3-2014q1/bin/../lib/gcc/arm-none-eabi/4.8.3/../../../../arm-none-eabi/lib/armv7-m\libg.a(lib_a-reent.o)
 .ARM.attributes
                0x00000de9       0x1d c:/users/teamuis/appdata/local/arduino15/packages/arduino/tools/arm-none-eabi-gcc/4.8.3-2014q1/bin/../lib/gcc/arm-none-eabi/4.8.3/armv7-m\libgcc.a(_aeabi_uldivmod.o)
 .ARM.attributes
                0x00000e06       0x2d c:/users/teamuis/appdata/local/arduino15/packages/arduino/tools/arm-none-eabi-gcc/4.8.3-2014q1/bin/../lib/gcc/arm-none-eabi/4.8.3/armv7-m\libgcc.a(bpabi.o)
 .ARM.attributes
                0x00000e33       0x1d c:/users/teamuis/appdata/local/arduino15/packages/arduino/tools/arm-none-eabi-gcc/4.8.3-2014q1/bin/../lib/gcc/arm-none-eabi/4.8.3/armv7-m\libgcc.a(_dvmd_tls.o)
 .ARM.attributes
                0x00000e50       0x2d c:/users/teamuis/appdata/local/arduino15/packages/arduino/tools/arm-none-eabi-gcc/4.8.3-2014q1/bin/../lib/gcc/arm-none-eabi/4.8.3/armv7-m\libgcc.a(_divdi3.o)
 .ARM.attributes
                0x00000e7d       0x2d c:/users/teamuis/appdata/local/arduino15/packages/arduino/tools/arm-none-eabi-gcc/4.8.3-2014q1/bin/../lib/gcc/arm-none-eabi/4.8.3/armv7-m\libgcc.a(_udivdi3.o)
 .ARM.attributes
                0x00000eaa       0x1d c:/users/teamuis/appdata/local/arduino15/packages/arduino/tools/arm-none-eabi-gcc/4.8.3-2014q1/bin/../lib/gcc/arm-none-eabi/4.8.3/armv7-m/crtn.o

.comment        0x00000000       0x70
 .comment       0x00000000       0x70 C:\Users\TeamUiS\AppData\Local\Temp\VMBuilds\Circulation\arduino_due_x_dbg\Release\Circulation.cpp.o
                                 0x71 (size before relaxing)
 .comment       0x00000000       0x71 C:\Users\TeamUiS\AppData\Local\Temp\VMBuilds\Circulation\arduino_due_x_dbg\Release\variant\variant.cpp.o
 .comment       0x00000000       0x71 C:\Users\TeamUiS\AppData\Local\arduino15\packages\arduino\hardware\sam\1.6.11\variants\arduino_due_x/libsam_sam3x8e_gcc_rel.a(pio.o)
 .comment       0x00000000       0x71 C:\Users\TeamUiS\AppData\Local\arduino15\packages\arduino\hardware\sam\1.6.11\variants\arduino_due_x/libsam_sam3x8e_gcc_rel.a(pmc.o)
 .comment       0x00000000       0x71 C:\Users\TeamUiS\AppData\Local\arduino15\packages\arduino\hardware\sam\1.6.11\variants\arduino_due_x/libsam_sam3x8e_gcc_rel.a(system_sam3xa.o)
 .comment       0x00000000       0x71 C:\Users\TeamUiS\AppData\Local\arduino15\packages\arduino\hardware\sam\1.6.11\variants\arduino_due_x/libsam_sam3x8e_gcc_rel.a(startup_sam3xa.o)
 .comment       0x00000000       0x71 C:\Users\TeamUiS\AppData\Local\arduino15\packages\arduino\hardware\sam\1.6.11\variants\arduino_due_x/libsam_sam3x8e_gcc_rel.a(adc.o)
 .comment       0x00000000       0x71 C:\Users\TeamUiS\AppData\Local\arduino15\packages\arduino\hardware\sam\1.6.11\variants\arduino_due_x/libsam_sam3x8e_gcc_rel.a(uotghs.o)
 .comment       0x00000000       0x71 C:\Users\TeamUiS\AppData\Local\Temp\VMBuilds\Circulation\arduino_due_x_dbg\Release/core.a(cortex_handlers.c.o)
 .comment       0x00000000       0x71 C:\Users\TeamUiS\AppData\Local\Temp\VMBuilds\Circulation\arduino_due_x_dbg\Release/core.a(hooks.c.o)
 .comment       0x00000000       0x71 C:\Users\TeamUiS\AppData\Local\Temp\VMBuilds\Circulation\arduino_due_x_dbg\Release/core.a(syscalls_sam3.c.o)
 .comment       0x00000000       0x71 C:\Users\TeamUiS\AppData\Local\Temp\VMBuilds\Circulation\arduino_due_x_dbg\Release/core.a(wiring.c.o)
 .comment       0x00000000       0x71 C:\Users\TeamUiS\AppData\Local\Temp\VMBuilds\Circulation\arduino_due_x_dbg\Release/core.a(wiring_analog.c.o)
 .comment       0x00000000       0x71 C:\Users\TeamUiS\AppData\Local\Temp\VMBuilds\Circulation\arduino_due_x_dbg\Release/core.a(wiring_digital.c.o)
 .comment       0x00000000       0x71 C:\Users\TeamUiS\AppData\Local\Temp\VMBuilds\Circulation\arduino_due_x_dbg\Release/core.a(main.cpp.o)
 .comment       0x00000000       0x71 C:\Users\TeamUiS\AppData\Local\Temp\VMBuilds\Circulation\arduino_due_x_dbg\Release/core.a(Print.cpp.o)
 .comment       0x00000000       0x71 C:\Users\TeamUiS\AppData\Local\Temp\VMBuilds\Circulation\arduino_due_x_dbg\Release/core.a(Reset.cpp.o)
 .comment       0x00000000       0x71 C:\Users\TeamUiS\AppData\Local\Temp\VMBuilds\Circulation\arduino_due_x_dbg\Release/core.a(RingBuffer.cpp.o)
 .comment       0x00000000       0x71 C:\Users\TeamUiS\AppData\Local\Temp\VMBuilds\Circulation\arduino_due_x_dbg\Release/core.a(UARTClass.cpp.o)
 .comment       0x00000000       0x71 C:\Users\TeamUiS\AppData\Local\Temp\VMBuilds\Circulation\arduino_due_x_dbg\Release/core.a(USARTClass.cpp.o)
 .comment       0x00000000       0x71 C:\Users\TeamUiS\AppData\Local\Temp\VMBuilds\Circulation\arduino_due_x_dbg\Release/core.a(watchdog.cpp.o)
 .comment       0x00000000       0x71 C:\Users\TeamUiS\AppData\Local\Temp\VMBuilds\Circulation\arduino_due_x_dbg\Release/core.a(USBCore.cpp.o)
 .comment       0x00000000       0x71 C:\Users\TeamUiS\AppData\Local\Temp\VMBuilds\Circulation\arduino_due_x_dbg\Release/core.a(CDC.cpp.o)
 .comment       0x00000000       0x71 C:\Users\TeamUiS\AppData\Local\Temp\VMBuilds\Circulation\arduino_due_x_dbg\Release/core.a(PluggableUSB.cpp.o)
 .comment       0x00000000       0x71 C:\Users\TeamUiS\AppData\Local\arduino15\packages\arduino\hardware\sam\1.6.11\variants\arduino_due_x/libsam_sam3x8e_gcc_rel.a(timetick.o)
 .comment       0x00000000       0x71 C:\Users\TeamUiS\AppData\Local\arduino15\packages\arduino\hardware\sam\1.6.11\variants\arduino_due_x/libsam_sam3x8e_gcc_rel.a(wdt.o)
 .comment       0x00000000       0x71 C:\Users\TeamUiS\AppData\Local\arduino15\packages\arduino\hardware\sam\1.6.11\variants\arduino_due_x/libsam_sam3x8e_gcc_rel.a(interrupt_sam_nvic.o)
 .comment       0x00000000       0x71 C:\Users\TeamUiS\AppData\Local\arduino15\packages\arduino\hardware\sam\1.6.11\variants\arduino_due_x/libsam_sam3x8e_gcc_rel.a(uotghs_device.o)

.debug_info     0x00000000    0x11900
 .debug_info    0x00000000      0x989 C:\Users\TeamUiS\AppData\Local\Temp\VMBuilds\Circulation\arduino_due_x_dbg\Release\Circulation.cpp.o
 .debug_info    0x00000989     0x1a43 C:\Users\TeamUiS\AppData\Local\Temp\VMBuilds\Circulation\arduino_due_x_dbg\Release\variant\variant.cpp.o
 .debug_info    0x000023cc      0x2da C:\Users\TeamUiS\AppData\Local\Temp\VMBuilds\Circulation\arduino_due_x_dbg\Release/core.a(cortex_handlers.c.o)
 .debug_info    0x000026a6       0x60 C:\Users\TeamUiS\AppData\Local\Temp\VMBuilds\Circulation\arduino_due_x_dbg\Release/core.a(hooks.c.o)
 .debug_info    0x00002706      0x62b C:\Users\TeamUiS\AppData\Local\Temp\VMBuilds\Circulation\arduino_due_x_dbg\Release/core.a(syscalls_sam3.c.o)
 .debug_info    0x00002d31      0x52f C:\Users\TeamUiS\AppData\Local\Temp\VMBuilds\Circulation\arduino_due_x_dbg\Release/core.a(wiring.c.o)
 .debug_info    0x00003260     0x1d7e C:\Users\TeamUiS\AppData\Local\Temp\VMBuilds\Circulation\arduino_due_x_dbg\Release/core.a(wiring_analog.c.o)
 .debug_info    0x00004fde      0xe00 C:\Users\TeamUiS\AppData\Local\Temp\VMBuilds\Circulation\arduino_due_x_dbg\Release/core.a(wiring_digital.c.o)
 .debug_info    0x00005dde      0x3cf C:\Users\TeamUiS\AppData\Local\Temp\VMBuilds\Circulation\arduino_due_x_dbg\Release/core.a(main.cpp.o)
 .debug_info    0x000061ad     0x27cd C:\Users\TeamUiS\AppData\Local\Temp\VMBuilds\Circulation\arduino_due_x_dbg\Release/core.a(Print.cpp.o)
 .debug_info    0x0000897a      0x3df C:\Users\TeamUiS\AppData\Local\Temp\VMBuilds\Circulation\arduino_due_x_dbg\Release/core.a(Reset.cpp.o)
 .debug_info    0x00008d59      0x1f6 C:\Users\TeamUiS\AppData\Local\Temp\VMBuilds\Circulation\arduino_due_x_dbg\Release/core.a(RingBuffer.cpp.o)
 .debug_info    0x00008f4f     0x24e3 C:\Users\TeamUiS\AppData\Local\Temp\VMBuilds\Circulation\arduino_due_x_dbg\Release/core.a(UARTClass.cpp.o)
 .debug_info    0x0000b432      0xbe2 C:\Users\TeamUiS\AppData\Local\Temp\VMBuilds\Circulation\arduino_due_x_dbg\Release/core.a(USARTClass.cpp.o)
 .debug_info    0x0000c014      0x220 C:\Users\TeamUiS\AppData\Local\Temp\VMBuilds\Circulation\arduino_due_x_dbg\Release/core.a(watchdog.cpp.o)
 .debug_info    0x0000c234     0x209d C:\Users\TeamUiS\AppData\Local\Temp\VMBuilds\Circulation\arduino_due_x_dbg\Release/core.a(USBCore.cpp.o)
 .debug_info    0x0000e2d1     0x2f8e C:\Users\TeamUiS\AppData\Local\Temp\VMBuilds\Circulation\arduino_due_x_dbg\Release/core.a(CDC.cpp.o)
 .debug_info    0x0001125f      0x6a1 C:\Users\TeamUiS\AppData\Local\Temp\VMBuilds\Circulation\arduino_due_x_dbg\Release/core.a(PluggableUSB.cpp.o)

.debug_abbrev   0x00000000     0x329c
 .debug_abbrev  0x00000000      0x246 C:\Users\TeamUiS\AppData\Local\Temp\VMBuilds\Circulation\arduino_due_x_dbg\Release\Circulation.cpp.o
 .debug_abbrev  0x00000246      0x3fc C:\Users\TeamUiS\AppData\Local\Temp\VMBuilds\Circulation\arduino_due_x_dbg\Release\variant\variant.cpp.o
 .debug_abbrev  0x00000642      0x106 C:\Users\TeamUiS\AppData\Local\Temp\VMBuilds\Circulation\arduino_due_x_dbg\Release/core.a(cortex_handlers.c.o)
 .debug_abbrev  0x00000748       0x47 C:\Users\TeamUiS\AppData\Local\Temp\VMBuilds\Circulation\arduino_due_x_dbg\Release/core.a(hooks.c.o)
 .debug_abbrev  0x0000078f      0x19c C:\Users\TeamUiS\AppData\Local\Temp\VMBuilds\Circulation\arduino_due_x_dbg\Release/core.a(syscalls_sam3.c.o)
 .debug_abbrev  0x0000092b      0x160 C:\Users\TeamUiS\AppData\Local\Temp\VMBuilds\Circulation\arduino_due_x_dbg\Release/core.a(wiring.c.o)
 .debug_abbrev  0x00000a8b      0x2fb C:\Users\TeamUiS\AppData\Local\Temp\VMBuilds\Circulation\arduino_due_x_dbg\Release/core.a(wiring_analog.c.o)
 .debug_abbrev  0x00000d86      0x225 C:\Users\TeamUiS\AppData\Local\Temp\VMBuilds\Circulation\arduino_due_x_dbg\Release/core.a(wiring_digital.c.o)
 .debug_abbrev  0x00000fab      0x196 C:\Users\TeamUiS\AppData\Local\Temp\VMBuilds\Circulation\arduino_due_x_dbg\Release/core.a(main.cpp.o)
 .debug_abbrev  0x00001141      0x4e0 C:\Users\TeamUiS\AppData\Local\Temp\VMBuilds\Circulation\arduino_due_x_dbg\Release/core.a(Print.cpp.o)
 .debug_abbrev  0x00001621      0x14c C:\Users\TeamUiS\AppData\Local\Temp\VMBuilds\Circulation\arduino_due_x_dbg\Release/core.a(Reset.cpp.o)
 .debug_abbrev  0x0000176d      0x175 C:\Users\TeamUiS\AppData\Local\Temp\VMBuilds\Circulation\arduino_due_x_dbg\Release/core.a(RingBuffer.cpp.o)
 .debug_abbrev  0x000018e2      0x53e C:\Users\TeamUiS\AppData\Local\Temp\VMBuilds\Circulation\arduino_due_x_dbg\Release/core.a(UARTClass.cpp.o)
 .debug_abbrev  0x00001e20      0x2eb C:\Users\TeamUiS\AppData\Local\Temp\VMBuilds\Circulation\arduino_due_x_dbg\Release/core.a(USARTClass.cpp.o)
 .debug_abbrev  0x0000210b      0x114 C:\Users\TeamUiS\AppData\Local\Temp\VMBuilds\Circulation\arduino_due_x_dbg\Release/core.a(watchdog.cpp.o)
 .debug_abbrev  0x0000221f      0x6d3 C:\Users\TeamUiS\AppData\Local\Temp\VMBuilds\Circulation\arduino_due_x_dbg\Release/core.a(USBCore.cpp.o)
 .debug_abbrev  0x000028f2      0x6f6 C:\Users\TeamUiS\AppData\Local\Temp\VMBuilds\Circulation\arduino_due_x_dbg\Release/core.a(CDC.cpp.o)
 .debug_abbrev  0x00002fe8      0x2b4 C:\Users\TeamUiS\AppData\Local\Temp\VMBuilds\Circulation\arduino_due_x_dbg\Release/core.a(PluggableUSB.cpp.o)

.debug_loc      0x00000000     0x39df
 .debug_loc     0x00000000      0x1d2 C:\Users\TeamUiS\AppData\Local\Temp\VMBuilds\Circulation\arduino_due_x_dbg\Release\Circulation.cpp.o
 .debug_loc     0x000001d2       0x8a C:\Users\TeamUiS\AppData\Local\Temp\VMBuilds\Circulation\arduino_due_x_dbg\Release\variant\variant.cpp.o
 .debug_loc     0x0000025c      0x176 C:\Users\TeamUiS\AppData\Local\Temp\VMBuilds\Circulation\arduino_due_x_dbg\Release/core.a(syscalls_sam3.c.o)
 .debug_loc     0x000003d2       0xfc C:\Users\TeamUiS\AppData\Local\Temp\VMBuilds\Circulation\arduino_due_x_dbg\Release/core.a(wiring.c.o)
 .debug_loc     0x000004ce      0x76c C:\Users\TeamUiS\AppData\Local\Temp\VMBuilds\Circulation\arduino_due_x_dbg\Release/core.a(wiring_analog.c.o)
 .debug_loc     0x00000c3a      0x1eb C:\Users\TeamUiS\AppData\Local\Temp\VMBuilds\Circulation\arduino_due_x_dbg\Release/core.a(wiring_digital.c.o)
 .debug_loc     0x00000e25     0x117a C:\Users\TeamUiS\AppData\Local\Temp\VMBuilds\Circulation\arduino_due_x_dbg\Release/core.a(Print.cpp.o)
 .debug_loc     0x00001f9f       0x1e C:\Users\TeamUiS\AppData\Local\Temp\VMBuilds\Circulation\arduino_due_x_dbg\Release/core.a(RingBuffer.cpp.o)
 .debug_loc     0x00001fbd      0x42b C:\Users\TeamUiS\AppData\Local\Temp\VMBuilds\Circulation\arduino_due_x_dbg\Release/core.a(UARTClass.cpp.o)
 .debug_loc     0x000023e8      0x230 C:\Users\TeamUiS\AppData\Local\Temp\VMBuilds\Circulation\arduino_due_x_dbg\Release/core.a(USARTClass.cpp.o)
 .debug_loc     0x00002618       0x69 C:\Users\TeamUiS\AppData\Local\Temp\VMBuilds\Circulation\arduino_due_x_dbg\Release/core.a(watchdog.cpp.o)
 .debug_loc     0x00002681      0xb08 C:\Users\TeamUiS\AppData\Local\Temp\VMBuilds\Circulation\arduino_due_x_dbg\Release/core.a(USBCore.cpp.o)
 .debug_loc     0x00003189      0x638 C:\Users\TeamUiS\AppData\Local\Temp\VMBuilds\Circulation\arduino_due_x_dbg\Release/core.a(CDC.cpp.o)
 .debug_loc     0x000037c1      0x21e C:\Users\TeamUiS\AppData\Local\Temp\VMBuilds\Circulation\arduino_due_x_dbg\Release/core.a(PluggableUSB.cpp.o)

.debug_aranges  0x00000000      0x698
 .debug_aranges
                0x00000000       0x38 C:\Users\TeamUiS\AppData\Local\Temp\VMBuilds\Circulation\arduino_due_x_dbg\Release\Circulation.cpp.o
 .debug_aranges
                0x00000038       0x70 C:\Users\TeamUiS\AppData\Local\Temp\VMBuilds\Circulation\arduino_due_x_dbg\Release\variant\variant.cpp.o
 .debug_aranges
                0x000000a8       0x38 C:\Users\TeamUiS\AppData\Local\Temp\VMBuilds\Circulation\arduino_due_x_dbg\Release/core.a(cortex_handlers.c.o)
 .debug_aranges
                0x000000e0       0x30 C:\Users\TeamUiS\AppData\Local\Temp\VMBuilds\Circulation\arduino_due_x_dbg\Release/core.a(hooks.c.o)
 .debug_aranges
                0x00000110       0x70 C:\Users\TeamUiS\AppData\Local\Temp\VMBuilds\Circulation\arduino_due_x_dbg\Release/core.a(syscalls_sam3.c.o)
 .debug_aranges
                0x00000180       0x30 C:\Users\TeamUiS\AppData\Local\Temp\VMBuilds\Circulation\arduino_due_x_dbg\Release/core.a(wiring.c.o)
 .debug_aranges
                0x000001b0       0x50 C:\Users\TeamUiS\AppData\Local\Temp\VMBuilds\Circulation\arduino_due_x_dbg\Release/core.a(wiring_analog.c.o)
 .debug_aranges
                0x00000200       0x30 C:\Users\TeamUiS\AppData\Local\Temp\VMBuilds\Circulation\arduino_due_x_dbg\Release/core.a(wiring_digital.c.o)
 .debug_aranges
                0x00000230       0x28 C:\Users\TeamUiS\AppData\Local\Temp\VMBuilds\Circulation\arduino_due_x_dbg\Release/core.a(main.cpp.o)
 .debug_aranges
                0x00000258       0xf8 C:\Users\TeamUiS\AppData\Local\Temp\VMBuilds\Circulation\arduino_due_x_dbg\Release/core.a(Print.cpp.o)
 .debug_aranges
                0x00000350       0x38 C:\Users\TeamUiS\AppData\Local\Temp\VMBuilds\Circulation\arduino_due_x_dbg\Release/core.a(Reset.cpp.o)
 .debug_aranges
                0x00000388       0x28 C:\Users\TeamUiS\AppData\Local\Temp\VMBuilds\Circulation\arduino_due_x_dbg\Release/core.a(RingBuffer.cpp.o)
 .debug_aranges
                0x000003b0       0x90 C:\Users\TeamUiS\AppData\Local\Temp\VMBuilds\Circulation\arduino_due_x_dbg\Release/core.a(UARTClass.cpp.o)
 .debug_aranges
                0x00000440       0x40 C:\Users\TeamUiS\AppData\Local\Temp\VMBuilds\Circulation\arduino_due_x_dbg\Release/core.a(USARTClass.cpp.o)
 .debug_aranges
                0x00000480       0x38 C:\Users\TeamUiS\AppData\Local\Temp\VMBuilds\Circulation\arduino_due_x_dbg\Release/core.a(watchdog.cpp.o)
 .debug_aranges
                0x000004b8       0xc0 C:\Users\TeamUiS\AppData\Local\Temp\VMBuilds\Circulation\arduino_due_x_dbg\Release/core.a(USBCore.cpp.o)
 .debug_aranges
                0x00000578       0xd0 C:\Users\TeamUiS\AppData\Local\Temp\VMBuilds\Circulation\arduino_due_x_dbg\Release/core.a(CDC.cpp.o)
 .debug_aranges
                0x00000648       0x50 C:\Users\TeamUiS\AppData\Local\Temp\VMBuilds\Circulation\arduino_due_x_dbg\Release/core.a(PluggableUSB.cpp.o)

.debug_ranges   0x00000000      0x930
 .debug_ranges  0x00000000       0x58 C:\Users\TeamUiS\AppData\Local\Temp\VMBuilds\Circulation\arduino_due_x_dbg\Release\Circulation.cpp.o
 .debug_ranges  0x00000058       0x80 C:\Users\TeamUiS\AppData\Local\Temp\VMBuilds\Circulation\arduino_due_x_dbg\Release\variant\variant.cpp.o
 .debug_ranges  0x000000d8       0x28 C:\Users\TeamUiS\AppData\Local\Temp\VMBuilds\Circulation\arduino_due_x_dbg\Release/core.a(cortex_handlers.c.o)
 .debug_ranges  0x00000100       0x20 C:\Users\TeamUiS\AppData\Local\Temp\VMBuilds\Circulation\arduino_due_x_dbg\Release/core.a(hooks.c.o)
 .debug_ranges  0x00000120       0x60 C:\Users\TeamUiS\AppData\Local\Temp\VMBuilds\Circulation\arduino_due_x_dbg\Release/core.a(syscalls_sam3.c.o)
 .debug_ranges  0x00000180       0x20 C:\Users\TeamUiS\AppData\Local\Temp\VMBuilds\Circulation\arduino_due_x_dbg\Release/core.a(wiring.c.o)
 .debug_ranges  0x000001a0       0x88 C:\Users\TeamUiS\AppData\Local\Temp\VMBuilds\Circulation\arduino_due_x_dbg\Release/core.a(wiring_analog.c.o)
 .debug_ranges  0x00000228       0x38 C:\Users\TeamUiS\AppData\Local\Temp\VMBuilds\Circulation\arduino_due_x_dbg\Release/core.a(wiring_digital.c.o)
 .debug_ranges  0x00000260       0x18 C:\Users\TeamUiS\AppData\Local\Temp\VMBuilds\Circulation\arduino_due_x_dbg\Release/core.a(main.cpp.o)
 .debug_ranges  0x00000278      0x180 C:\Users\TeamUiS\AppData\Local\Temp\VMBuilds\Circulation\arduino_due_x_dbg\Release/core.a(Print.cpp.o)
 .debug_ranges  0x000003f8       0x28 C:\Users\TeamUiS\AppData\Local\Temp\VMBuilds\Circulation\arduino_due_x_dbg\Release/core.a(Reset.cpp.o)
 .debug_ranges  0x00000420       0x18 C:\Users\TeamUiS\AppData\Local\Temp\VMBuilds\Circulation\arduino_due_x_dbg\Release/core.a(RingBuffer.cpp.o)
 .debug_ranges  0x00000438       0xb0 C:\Users\TeamUiS\AppData\Local\Temp\VMBuilds\Circulation\arduino_due_x_dbg\Release/core.a(UARTClass.cpp.o)
 .debug_ranges  0x000004e8       0x30 C:\Users\TeamUiS\AppData\Local\Temp\VMBuilds\Circulation\arduino_due_x_dbg\Release/core.a(USARTClass.cpp.o)
 .debug_ranges  0x00000518       0x28 C:\Users\TeamUiS\AppData\Local\Temp\VMBuilds\Circulation\arduino_due_x_dbg\Release/core.a(watchdog.cpp.o)
 .debug_ranges  0x00000540      0x248 C:\Users\TeamUiS\AppData\Local\Temp\VMBuilds\Circulation\arduino_due_x_dbg\Release/core.a(USBCore.cpp.o)
 .debug_ranges  0x00000788       0xd8 C:\Users\TeamUiS\AppData\Local\Temp\VMBuilds\Circulation\arduino_due_x_dbg\Release/core.a(CDC.cpp.o)
 .debug_ranges  0x00000860       0xd0 C:\Users\TeamUiS\AppData\Local\Temp\VMBuilds\Circulation\arduino_due_x_dbg\Release/core.a(PluggableUSB.cpp.o)

.debug_line     0x00000000     0x579e
 .debug_line    0x00000000      0x56b C:\Users\TeamUiS\AppData\Local\Temp\VMBuilds\Circulation\arduino_due_x_dbg\Release\Circulation.cpp.o
 .debug_line    0x0000056b      0x63b C:\Users\TeamUiS\AppData\Local\Temp\VMBuilds\Circulation\arduino_due_x_dbg\Release\variant\variant.cpp.o
 .debug_line    0x00000ba6      0x360 C:\Users\TeamUiS\AppData\Local\Temp\VMBuilds\Circulation\arduino_due_x_dbg\Release/core.a(cortex_handlers.c.o)
 .debug_line    0x00000f06       0xb2 C:\Users\TeamUiS\AppData\Local\Temp\VMBuilds\Circulation\arduino_due_x_dbg\Release/core.a(hooks.c.o)
 .debug_line    0x00000fb8      0x4a2 C:\Users\TeamUiS\AppData\Local\Temp\VMBuilds\Circulation\arduino_due_x_dbg\Release/core.a(syscalls_sam3.c.o)
 .debug_line    0x0000145a      0x364 C:\Users\TeamUiS\AppData\Local\Temp\VMBuilds\Circulation\arduino_due_x_dbg\Release/core.a(wiring.c.o)
 .debug_line    0x000017be      0x5fb C:\Users\TeamUiS\AppData\Local\Temp\VMBuilds\Circulation\arduino_due_x_dbg\Release/core.a(wiring_analog.c.o)
 .debug_line    0x00001db9      0x4b5 C:\Users\TeamUiS\AppData\Local\Temp\VMBuilds\Circulation\arduino_due_x_dbg\Release/core.a(wiring_digital.c.o)
 .debug_line    0x0000226e      0x3dc C:\Users\TeamUiS\AppData\Local\Temp\VMBuilds\Circulation\arduino_due_x_dbg\Release/core.a(main.cpp.o)
 .debug_line    0x0000264a      0x71f C:\Users\TeamUiS\AppData\Local\Temp\VMBuilds\Circulation\arduino_due_x_dbg\Release/core.a(Print.cpp.o)
 .debug_line    0x00002d69      0x4a3 C:\Users\TeamUiS\AppData\Local\Temp\VMBuilds\Circulation\arduino_due_x_dbg\Release/core.a(Reset.cpp.o)
 .debug_line    0x0000320c      0x1da C:\Users\TeamUiS\AppData\Local\Temp\VMBuilds\Circulation\arduino_due_x_dbg\Release/core.a(RingBuffer.cpp.o)
 .debug_line    0x000033e6      0x664 C:\Users\TeamUiS\AppData\Local\Temp\VMBuilds\Circulation\arduino_due_x_dbg\Release/core.a(UARTClass.cpp.o)
 .debug_line    0x00003a4a      0x507 C:\Users\TeamUiS\AppData\Local\Temp\VMBuilds\Circulation\arduino_due_x_dbg\Release/core.a(USARTClass.cpp.o)
 .debug_line    0x00003f51      0x3f3 C:\Users\TeamUiS\AppData\Local\Temp\VMBuilds\Circulation\arduino_due_x_dbg\Release/core.a(watchdog.cpp.o)
 .debug_line    0x00004344      0x939 C:\Users\TeamUiS\AppData\Local\Temp\VMBuilds\Circulation\arduino_due_x_dbg\Release/core.a(USBCore.cpp.o)
 .debug_line    0x00004c7d      0x81e C:\Users\TeamUiS\AppData\Local\Temp\VMBuilds\Circulation\arduino_due_x_dbg\Release/core.a(CDC.cpp.o)
 .debug_line    0x0000549b      0x303 C:\Users\TeamUiS\AppData\Local\Temp\VMBuilds\Circulation\arduino_due_x_dbg\Release/core.a(PluggableUSB.cpp.o)

.debug_str      0x00000000     0x4e92
 .debug_str     0x00000000      0x583 C:\Users\TeamUiS\AppData\Local\Temp\VMBuilds\Circulation\arduino_due_x_dbg\Release\Circulation.cpp.o
                                0x612 (size before relaxing)
 .debug_str     0x00000583      0xeb0 C:\Users\TeamUiS\AppData\Local\Temp\VMBuilds\Circulation\arduino_due_x_dbg\Release\variant\variant.cpp.o
                               0x11d5 (size before relaxing)
 .debug_str     0x00001433      0x19f C:\Users\TeamUiS\AppData\Local\Temp\VMBuilds\Circulation\arduino_due_x_dbg\Release/core.a(cortex_handlers.c.o)
                                0x2db (size before relaxing)
 .debug_str     0x000015d2       0x74 C:\Users\TeamUiS\AppData\Local\Temp\VMBuilds\Circulation\arduino_due_x_dbg\Release/core.a(hooks.c.o)
                                0x13e (size before relaxing)
 .debug_str     0x00001646      0x1ff C:\Users\TeamUiS\AppData\Local\Temp\VMBuilds\Circulation\arduino_due_x_dbg\Release/core.a(syscalls_sam3.c.o)
                                0x4ac (size before relaxing)
 .debug_str     0x00001845       0x98 C:\Users\TeamUiS\AppData\Local\Temp\VMBuilds\Circulation\arduino_due_x_dbg\Release/core.a(wiring.c.o)
                                0x345 (size before relaxing)
 .debug_str     0x000018dd      0x7ef C:\Users\TeamUiS\AppData\Local\Temp\VMBuilds\Circulation\arduino_due_x_dbg\Release/core.a(wiring_analog.c.o)
                               0x1038 (size before relaxing)
 .debug_str     0x000020cc       0xcf C:\Users\TeamUiS\AppData\Local\Temp\VMBuilds\Circulation\arduino_due_x_dbg\Release/core.a(wiring_digital.c.o)
                                0x9e9 (size before relaxing)
 .debug_str     0x0000219b      0x131 C:\Users\TeamUiS\AppData\Local\Temp\VMBuilds\Circulation\arduino_due_x_dbg\Release/core.a(main.cpp.o)
                                0x3fb (size before relaxing)
 .debug_str     0x000022cc      0xcb0 C:\Users\TeamUiS\AppData\Local\Temp\VMBuilds\Circulation\arduino_due_x_dbg\Release/core.a(Print.cpp.o)
                               0x101e (size before relaxing)
 .debug_str     0x00002f7c      0x104 C:\Users\TeamUiS\AppData\Local\Temp\VMBuilds\Circulation\arduino_due_x_dbg\Release/core.a(Reset.cpp.o)
                                0x3bc (size before relaxing)
 .debug_str     0x00003080       0x86 C:\Users\TeamUiS\AppData\Local\Temp\VMBuilds\Circulation\arduino_due_x_dbg\Release/core.a(RingBuffer.cpp.o)
                                0x2a7 (size before relaxing)
 .debug_str     0x00003106      0x694 C:\Users\TeamUiS\AppData\Local\Temp\VMBuilds\Circulation\arduino_due_x_dbg\Release/core.a(UARTClass.cpp.o)
                               0x179f (size before relaxing)
 .debug_str     0x0000379a      0x257 C:\Users\TeamUiS\AppData\Local\Temp\VMBuilds\Circulation\arduino_due_x_dbg\Release/core.a(USARTClass.cpp.o)
                                0xa07 (size before relaxing)
 .debug_str     0x000039f1      0x125 C:\Users\TeamUiS\AppData\Local\Temp\VMBuilds\Circulation\arduino_due_x_dbg\Release/core.a(watchdog.cpp.o)
                                0x319 (size before relaxing)
 .debug_str     0x00003b16      0xe1a C:\Users\TeamUiS\AppData\Local\Temp\VMBuilds\Circulation\arduino_due_x_dbg\Release/core.a(USBCore.cpp.o)
                               0x131d (size before relaxing)
 .debug_str     0x00004930      0x4ca C:\Users\TeamUiS\AppData\Local\Temp\VMBuilds\Circulation\arduino_due_x_dbg\Release/core.a(CDC.cpp.o)
                               0x1d1c (size before relaxing)
 .debug_str     0x00004dfa       0x98 C:\Users\TeamUiS\AppData\Local\Temp\VMBuilds\Circulation\arduino_due_x_dbg\Release/core.a(PluggableUSB.cpp.o)
                                0x5bb (size before relaxing)

.debug_frame    0x00000000     0x19c0
 .debug_frame   0x00000000       0x88 C:\Users\TeamUiS\AppData\Local\Temp\VMBuilds\Circulation\arduino_due_x_dbg\Release\Circulation.cpp.o
 .debug_frame   0x00000088       0xf0 C:\Users\TeamUiS\AppData\Local\Temp\VMBuilds\Circulation\arduino_due_x_dbg\Release\variant\variant.cpp.o
 .debug_frame   0x00000178       0x58 C:\Users\TeamUiS\AppData\Local\Temp\VMBuilds\Circulation\arduino_due_x_dbg\Release/core.a(cortex_handlers.c.o)
 .debug_frame   0x000001d0       0x40 C:\Users\TeamUiS\AppData\Local\Temp\VMBuilds\Circulation\arduino_due_x_dbg\Release/core.a(hooks.c.o)
 .debug_frame   0x00000210       0xd0 C:\Users\TeamUiS\AppData\Local\Temp\VMBuilds\Circulation\arduino_due_x_dbg\Release/core.a(syscalls_sam3.c.o)
 .debug_frame   0x000002e0       0x5c C:\Users\TeamUiS\AppData\Local\Temp\VMBuilds\Circulation\arduino_due_x_dbg\Release/core.a(wiring.c.o)
 .debug_frame   0x0000033c       0xa4 C:\Users\TeamUiS\AppData\Local\Temp\VMBuilds\Circulation\arduino_due_x_dbg\Release/core.a(wiring_analog.c.o)
 .debug_frame   0x000003e0       0x6c C:\Users\TeamUiS\AppData\Local\Temp\VMBuilds\Circulation\arduino_due_x_dbg\Release/core.a(wiring_digital.c.o)
 .debug_frame   0x0000044c       0x38 C:\Users\TeamUiS\AppData\Local\Temp\VMBuilds\Circulation\arduino_due_x_dbg\Release/core.a(main.cpp.o)
 .debug_frame   0x00000484      0x2e0 C:\Users\TeamUiS\AppData\Local\Temp\VMBuilds\Circulation\arduino_due_x_dbg\Release/core.a(Print.cpp.o)
 .debug_frame   0x00000764       0x58 C:\Users\TeamUiS\AppData\Local\Temp\VMBuilds\Circulation\arduino_due_x_dbg\Release/core.a(Reset.cpp.o)
 .debug_frame   0x000007bc       0x38 C:\Users\TeamUiS\AppData\Local\Temp\VMBuilds\Circulation\arduino_due_x_dbg\Release/core.a(RingBuffer.cpp.o)
 .debug_frame   0x000007f4      0x138 C:\Users\TeamUiS\AppData\Local\Temp\VMBuilds\Circulation\arduino_due_x_dbg\Release/core.a(UARTClass.cpp.o)
 .debug_frame   0x0000092c       0x70 C:\Users\TeamUiS\AppData\Local\Temp\VMBuilds\Circulation\arduino_due_x_dbg\Release/core.a(USARTClass.cpp.o)
 .debug_frame   0x0000099c       0x50 C:\Users\TeamUiS\AppData\Local\Temp\VMBuilds\Circulation\arduino_due_x_dbg\Release/core.a(watchdog.cpp.o)
 .debug_frame   0x000009ec      0x22c C:\Users\TeamUiS\AppData\Local\Temp\VMBuilds\Circulation\arduino_due_x_dbg\Release/core.a(USBCore.cpp.o)
 .debug_frame   0x00000c18      0x1c0 C:\Users\TeamUiS\AppData\Local\Temp\VMBuilds\Circulation\arduino_due_x_dbg\Release/core.a(CDC.cpp.o)
 .debug_frame   0x00000dd8       0xbc C:\Users\TeamUiS\AppData\Local\Temp\VMBuilds\Circulation\arduino_due_x_dbg\Release/core.a(PluggableUSB.cpp.o)
 .debug_frame   0x00000e94       0x28 c:/users/teamuis/appdata/local/arduino15/packages/arduino/tools/arm-none-eabi-gcc/4.8.3-2014q1/bin/../lib/gcc/arm-none-eabi/4.8.3/../../../../arm-none-eabi/lib/armv7-m\libm.a(lib_a-s_fpclassify.o)
 .debug_frame   0x00000ebc       0x2c c:/users/teamuis/appdata/local/arduino15/packages/arduino/tools/arm-none-eabi-gcc/4.8.3-2014q1/bin/../lib/gcc/arm-none-eabi/4.8.3/../../../../arm-none-eabi/lib/armv7-m\libg.a(lib_a-init.o)
 .debug_frame   0x00000ee8       0x5c c:/users/teamuis/appdata/local/arduino15/packages/arduino/tools/arm-none-eabi-gcc/4.8.3-2014q1/bin/../lib/gcc/arm-none-eabi/4.8.3/../../../../arm-none-eabi/lib/armv7-m\libg.a(lib_a-iprintf.o)
 .debug_frame   0x00000f44       0x2c c:/users/teamuis/appdata/local/arduino15/packages/arduino/tools/arm-none-eabi-gcc/4.8.3-2014q1/bin/../lib/gcc/arm-none-eabi/4.8.3/../../../../arm-none-eabi/lib/armv7-m\libg.a(lib_a-memset.o)
 .debug_frame   0x00000f70       0x20 c:/users/teamuis/appdata/local/arduino15/packages/arduino/tools/arm-none-eabi-gcc/4.8.3-2014q1/bin/../lib/gcc/arm-none-eabi/4.8.3/../../../../arm-none-eabi/lib/armv7-m\libg.a(lib_a-strlen.o)
 .debug_frame   0x00000f90       0x20 c:/users/teamuis/appdata/local/arduino15/packages/arduino/tools/arm-none-eabi-gcc/4.8.3-2014q1/bin/../lib/gcc/arm-none-eabi/4.8.3/../../../../arm-none-eabi/lib/armv7-m\libg.a(lib_a-syskill.o)
 .debug_frame   0x00000fb0       0xb8 c:/users/teamuis/appdata/local/arduino15/packages/arduino/tools/arm-none-eabi-gcc/4.8.3-2014q1/bin/../lib/gcc/arm-none-eabi/4.8.3/../../../../arm-none-eabi/lib/armv7-m\libg.a(lib_a-vfiprintf.o)
 .debug_frame   0x00001068       0x2c c:/users/teamuis/appdata/local/arduino15/packages/arduino/tools/arm-none-eabi-gcc/4.8.3-2014q1/bin/../lib/gcc/arm-none-eabi/4.8.3/../../../../arm-none-eabi/lib/armv7-m\libg.a(lib_a-wsetup.o)
 .debug_frame   0x00001094       0x48 c:/users/teamuis/appdata/local/arduino15/packages/arduino/tools/arm-none-eabi-gcc/4.8.3-2014q1/bin/../lib/gcc/arm-none-eabi/4.8.3/../../../../arm-none-eabi/lib/armv7-m\libg.a(lib_a-__call_atexit.o)
 .debug_frame   0x000010dc       0x20 c:/users/teamuis/appdata/local/arduino15/packages/arduino/tools/arm-none-eabi-gcc/4.8.3-2014q1/bin/../lib/gcc/arm-none-eabi/4.8.3/../../../../arm-none-eabi/lib/armv7-m\libg.a(lib_a-atexit.o)
 .debug_frame   0x000010fc       0x5c c:/users/teamuis/appdata/local/arduino15/packages/arduino/tools/arm-none-eabi-gcc/4.8.3-2014q1/bin/../lib/gcc/arm-none-eabi/4.8.3/../../../../arm-none-eabi/lib/armv7-m\libg.a(lib_a-fflush.o)
 .debug_frame   0x00001158      0x110 c:/users/teamuis/appdata/local/arduino15/packages/arduino/tools/arm-none-eabi-gcc/4.8.3-2014q1/bin/../lib/gcc/arm-none-eabi/4.8.3/../../../../arm-none-eabi/lib/armv7-m\libg.a(lib_a-findfp.o)
 .debug_frame   0x00001268       0x2c c:/users/teamuis/appdata/local/arduino15/packages/arduino/tools/arm-none-eabi-gcc/4.8.3-2014q1/bin/../lib/gcc/arm-none-eabi/4.8.3/../../../../arm-none-eabi/lib/armv7-m\libg.a(lib_a-fini.o)
 .debug_frame   0x00001294       0x50 c:/users/teamuis/appdata/local/arduino15/packages/arduino/tools/arm-none-eabi-gcc/4.8.3-2014q1/bin/../lib/gcc/arm-none-eabi/4.8.3/../../../../arm-none-eabi/lib/armv7-m\libg.a(lib_a-fputwc.o)
 .debug_frame   0x000012e4       0x50 c:/users/teamuis/appdata/local/arduino15/packages/arduino/tools/arm-none-eabi-gcc/4.8.3-2014q1/bin/../lib/gcc/arm-none-eabi/4.8.3/../../../../arm-none-eabi/lib/armv7-m\libg.a(lib_a-freer.o)
 .debug_frame   0x00001334       0x38 c:/users/teamuis/appdata/local/arduino15/packages/arduino/tools/arm-none-eabi-gcc/4.8.3-2014q1/bin/../lib/gcc/arm-none-eabi/4.8.3/../../../../arm-none-eabi/lib/armv7-m\libg.a(lib_a-fvwrite.o)
 .debug_frame   0x0000136c       0x54 c:/users/teamuis/appdata/local/arduino15/packages/arduino/tools/arm-none-eabi-gcc/4.8.3-2014q1/bin/../lib/gcc/arm-none-eabi/4.8.3/../../../../arm-none-eabi/lib/armv7-m\libg.a(lib_a-fwalk.o)
 .debug_frame   0x000013c0       0x98 c:/users/teamuis/appdata/local/arduino15/packages/arduino/tools/arm-none-eabi-gcc/4.8.3-2014q1/bin/../lib/gcc/arm-none-eabi/4.8.3/../../../../arm-none-eabi/lib/armv7-m\libg.a(lib_a-locale.o)
 .debug_frame   0x00001458       0x30 c:/users/teamuis/appdata/local/arduino15/packages/arduino/tools/arm-none-eabi-gcc/4.8.3-2014q1/bin/../lib/gcc/arm-none-eabi/4.8.3/../../../../arm-none-eabi/lib/armv7-m\libg.a(lib_a-makebuf.o)
 .debug_frame   0x00001488       0x38 c:/users/teamuis/appdata/local/arduino15/packages/arduino/tools/arm-none-eabi-gcc/4.8.3-2014q1/bin/../lib/gcc/arm-none-eabi/4.8.3/../../../../arm-none-eabi/lib/armv7-m\libg.a(lib_a-mallocr.o)
 .debug_frame   0x000014c0       0x2c c:/users/teamuis/appdata/local/arduino15/packages/arduino/tools/arm-none-eabi-gcc/4.8.3-2014q1/bin/../lib/gcc/arm-none-eabi/4.8.3/../../../../arm-none-eabi/lib/armv7-m\libg.a(lib_a-memchr-stub.o)
 .debug_frame   0x000014ec       0x2c c:/users/teamuis/appdata/local/arduino15/packages/arduino/tools/arm-none-eabi-gcc/4.8.3-2014q1/bin/../lib/gcc/arm-none-eabi/4.8.3/../../../../arm-none-eabi/lib/armv7-m\libg.a(lib_a-memmove.o)
 .debug_frame   0x00001518       0x30 c:/users/teamuis/appdata/local/arduino15/packages/arduino/tools/arm-none-eabi-gcc/4.8.3-2014q1/bin/../lib/gcc/arm-none-eabi/4.8.3/../../../../arm-none-eabi/lib/armv7-m\libg.a(lib_a-mlock.o)
 .debug_frame   0x00001548       0x38 c:/users/teamuis/appdata/local/arduino15/packages/arduino/tools/arm-none-eabi-gcc/4.8.3-2014q1/bin/../lib/gcc/arm-none-eabi/4.8.3/../../../../arm-none-eabi/lib/armv7-m\libg.a(lib_a-reallocr.o)
 .debug_frame   0x00001580       0x2c c:/users/teamuis/appdata/local/arduino15/packages/arduino/tools/arm-none-eabi-gcc/4.8.3-2014q1/bin/../lib/gcc/arm-none-eabi/4.8.3/../../../../arm-none-eabi/lib/armv7-m\libg.a(lib_a-sbrkr.o)
 .debug_frame   0x000015ac       0x3c c:/users/teamuis/appdata/local/arduino15/packages/arduino/tools/arm-none-eabi-gcc/4.8.3-2014q1/bin/../lib/gcc/arm-none-eabi/4.8.3/../../../../arm-none-eabi/lib/armv7-m\libg.a(lib_a-signalr.o)
 .debug_frame   0x000015e8       0x80 c:/users/teamuis/appdata/local/arduino15/packages/arduino/tools/arm-none-eabi-gcc/4.8.3-2014q1/bin/../lib/gcc/arm-none-eabi/4.8.3/../../../../arm-none-eabi/lib/armv7-m\libg.a(lib_a-stdio.o)
 .debug_frame   0x00001668       0x40 c:/users/teamuis/appdata/local/arduino15/packages/arduino/tools/arm-none-eabi-gcc/4.8.3-2014q1/bin/../lib/gcc/arm-none-eabi/4.8.3/../../../../arm-none-eabi/lib/armv7-m\libg.a(lib_a-wbuf.o)
 .debug_frame   0x000016a8       0x58 c:/users/teamuis/appdata/local/arduino15/packages/arduino/tools/arm-none-eabi-gcc/4.8.3-2014q1/bin/../lib/gcc/arm-none-eabi/4.8.3/../../../../arm-none-eabi/lib/armv7-m\libg.a(lib_a-wcrtomb.o)
 .debug_frame   0x00001700       0x44 c:/users/teamuis/appdata/local/arduino15/packages/arduino/tools/arm-none-eabi-gcc/4.8.3-2014q1/bin/../lib/gcc/arm-none-eabi/4.8.3/../../../../arm-none-eabi/lib/armv7-m\libg.a(lib_a-wctomb_r.o)
 .debug_frame   0x00001744       0x2c c:/users/teamuis/appdata/local/arduino15/packages/arduino/tools/arm-none-eabi-gcc/4.8.3-2014q1/bin/../lib/gcc/arm-none-eabi/4.8.3/../../../../arm-none-eabi/lib/armv7-m\libg.a(lib_a-writer.o)
 .debug_frame   0x00001770       0x30 c:/users/teamuis/appdata/local/arduino15/packages/arduino/tools/arm-none-eabi-gcc/4.8.3-2014q1/bin/../lib/gcc/arm-none-eabi/4.8.3/../../../../arm-none-eabi/lib/armv7-m\libg.a(lib_a-__atexit.o)
 .debug_frame   0x000017a0       0x2c c:/users/teamuis/appdata/local/arduino15/packages/arduino/tools/arm-none-eabi-gcc/4.8.3-2014q1/bin/../lib/gcc/arm-none-eabi/4.8.3/../../../../arm-none-eabi/lib/armv7-m\libg.a(lib_a-closer.o)
 .debug_frame   0x000017cc       0x3c c:/users/teamuis/appdata/local/arduino15/packages/arduino/tools/arm-none-eabi-gcc/4.8.3-2014q1/bin/../lib/gcc/arm-none-eabi/4.8.3/../../../../arm-none-eabi/lib/armv7-m\libg.a(lib_a-fclose.o)
 .debug_frame   0x00001808       0x2c c:/users/teamuis/appdata/local/arduino15/packages/arduino/tools/arm-none-eabi-gcc/4.8.3-2014q1/bin/../lib/gcc/arm-none-eabi/4.8.3/../../../../arm-none-eabi/lib/armv7-m\libg.a(lib_a-fstatr.o)
 .debug_frame   0x00001834       0x2c c:/users/teamuis/appdata/local/arduino15/packages/arduino/tools/arm-none-eabi-gcc/4.8.3-2014q1/bin/../lib/gcc/arm-none-eabi/4.8.3/../../../../arm-none-eabi/lib/armv7-m\libg.a(lib_a-isattyr.o)
 .debug_frame   0x00001860       0x2c c:/users/teamuis/appdata/local/arduino15/packages/arduino/tools/arm-none-eabi-gcc/4.8.3-2014q1/bin/../lib/gcc/arm-none-eabi/4.8.3/../../../../arm-none-eabi/lib/armv7-m\libg.a(lib_a-lseekr.o)
 .debug_frame   0x0000188c       0x2c c:/users/teamuis/appdata/local/arduino15/packages/arduino/tools/arm-none-eabi-gcc/4.8.3-2014q1/bin/../lib/gcc/arm-none-eabi/4.8.3/../../../../arm-none-eabi/lib/armv7-m\libg.a(lib_a-readr.o)
 .debug_frame   0x000018b8       0x48 c:/users/teamuis/appdata/local/arduino15/packages/arduino/tools/arm-none-eabi-gcc/4.8.3-2014q1/bin/../lib/gcc/arm-none-eabi/4.8.3/../../../../arm-none-eabi/lib/armv7-m\libg.a(lib_a-reent.o)
 .debug_frame   0x00001900       0x58 c:/users/teamuis/appdata/local/arduino15/packages/arduino/tools/arm-none-eabi-gcc/4.8.3-2014q1/bin/../lib/gcc/arm-none-eabi/4.8.3/armv7-m\libgcc.a(bpabi.o)
 .debug_frame   0x00001958       0x34 c:/users/teamuis/appdata/local/arduino15/packages/arduino/tools/arm-none-eabi-gcc/4.8.3-2014q1/bin/../lib/gcc/arm-none-eabi/4.8.3/armv7-m\libgcc.a(_divdi3.o)
 .debug_frame   0x0000198c       0x34 c:/users/teamuis/appdata/local/arduino15/packages/arduino/tools/arm-none-eabi-gcc/4.8.3-2014q1/bin/../lib/gcc/arm-none-eabi/4.8.3/armv7-m\libgcc.a(_udivdi3.o)

Cross Reference Table

Symbol                                            File
ADC_Handler                                       C:\Users\TeamUiS\AppData\Local\Temp\VMBuilds\Circulation\arduino_due_x_dbg\Release/core.a(cortex_handlers.c.o)
                                                  C:\Users\TeamUiS\AppData\Local\arduino15\packages\arduino\hardware\sam\1.6.11\variants\arduino_due_x/libsam_sam3x8e_gcc_rel.a(startup_sam3xa.o)
BusFault_Handler                                  C:\Users\TeamUiS\AppData\Local\Temp\VMBuilds\Circulation\arduino_due_x_dbg\Release/core.a(cortex_handlers.c.o)
                                                  C:\Users\TeamUiS\AppData\Local\arduino15\packages\arduino\hardware\sam\1.6.11\variants\arduino_due_x/libsam_sam3x8e_gcc_rel.a(startup_sam3xa.o)
CAN0_Handler                                      C:\Users\TeamUiS\AppData\Local\Temp\VMBuilds\Circulation\arduino_due_x_dbg\Release/core.a(cortex_handlers.c.o)
                                                  C:\Users\TeamUiS\AppData\Local\arduino15\packages\arduino\hardware\sam\1.6.11\variants\arduino_due_x/libsam_sam3x8e_gcc_rel.a(startup_sam3xa.o)
CAN1_Handler                                      C:\Users\TeamUiS\AppData\Local\Temp\VMBuilds\Circulation\arduino_due_x_dbg\Release/core.a(cortex_handlers.c.o)
                                                  C:\Users\TeamUiS\AppData\Local\arduino15\packages\arduino\hardware\sam\1.6.11\variants\arduino_due_x/libsam_sam3x8e_gcc_rel.a(startup_sam3xa.o)
CDC_GetInterface(unsigned char*)                  C:\Users\TeamUiS\AppData\Local\Temp\VMBuilds\Circulation\arduino_due_x_dbg\Release/core.a(CDC.cpp.o)
                                                  C:\Users\TeamUiS\AppData\Local\Temp\VMBuilds\Circulation\arduino_due_x_dbg\Release/core.a(USBCore.cpp.o)
CDC_GetOtherInterface(unsigned char*)             C:\Users\TeamUiS\AppData\Local\Temp\VMBuilds\Circulation\arduino_due_x_dbg\Release/core.a(CDC.cpp.o)
                                                  C:\Users\TeamUiS\AppData\Local\Temp\VMBuilds\Circulation\arduino_due_x_dbg\Release/core.a(USBCore.cpp.o)
CDC_Setup(USBSetup&)                              C:\Users\TeamUiS\AppData\Local\Temp\VMBuilds\Circulation\arduino_due_x_dbg\Release/core.a(CDC.cpp.o)
                                                  C:\Users\TeamUiS\AppData\Local\Temp\VMBuilds\Circulation\arduino_due_x_dbg\Release/core.a(USBCore.cpp.o)
ConvertPressure(float)                            C:\Users\TeamUiS\AppData\Local\Temp\VMBuilds\Circulation\arduino_due_x_dbg\Release\Circulation.cpp.o
DACC_Handler                                      C:\Users\TeamUiS\AppData\Local\Temp\VMBuilds\Circulation\arduino_due_x_dbg\Release/core.a(cortex_handlers.c.o)
                                                  C:\Users\TeamUiS\AppData\Local\arduino15\packages\arduino\hardware\sam\1.6.11\variants\arduino_due_x/libsam_sam3x8e_gcc_rel.a(startup_sam3xa.o)
DMAC_Handler                                      C:\Users\TeamUiS\AppData\Local\Temp\VMBuilds\Circulation\arduino_due_x_dbg\Release/core.a(cortex_handlers.c.o)
                                                  C:\Users\TeamUiS\AppData\Local\arduino15\packages\arduino\hardware\sam\1.6.11\variants\arduino_due_x/libsam_sam3x8e_gcc_rel.a(startup_sam3xa.o)
DebugMon_Handler                                  C:\Users\TeamUiS\AppData\Local\Temp\VMBuilds\Circulation\arduino_due_x_dbg\Release/core.a(cortex_handlers.c.o)
                                                  C:\Users\TeamUiS\AppData\Local\arduino15\packages\arduino\hardware\sam\1.6.11\variants\arduino_due_x/libsam_sam3x8e_gcc_rel.a(startup_sam3xa.o)
EFC0_Handler                                      C:\Users\TeamUiS\AppData\Local\Temp\VMBuilds\Circulation\arduino_due_x_dbg\Release/core.a(cortex_handlers.c.o)
                                                  C:\Users\TeamUiS\AppData\Local\arduino15\packages\arduino\hardware\sam\1.6.11\variants\arduino_due_x/libsam_sam3x8e_gcc_rel.a(startup_sam3xa.o)
EFC1_Handler                                      C:\Users\TeamUiS\AppData\Local\Temp\VMBuilds\Circulation\arduino_due_x_dbg\Release/core.a(cortex_handlers.c.o)
                                                  C:\Users\TeamUiS\AppData\Local\arduino15\packages\arduino\hardware\sam\1.6.11\variants\arduino_due_x/libsam_sam3x8e_gcc_rel.a(startup_sam3xa.o)
EMAC_Handler                                      C:\Users\TeamUiS\AppData\Local\Temp\VMBuilds\Circulation\arduino_due_x_dbg\Release/core.a(cortex_handlers.c.o)
                                                  C:\Users\TeamUiS\AppData\Local\arduino15\packages\arduino\hardware\sam\1.6.11\variants\arduino_due_x/libsam_sam3x8e_gcc_rel.a(startup_sam3xa.o)
EndPoints                                         C:\Users\TeamUiS\AppData\Local\Temp\VMBuilds\Circulation\arduino_due_x_dbg\Release/core.a(USBCore.cpp.o)
                                                  C:\Users\TeamUiS\AppData\Local\Temp\VMBuilds\Circulation\arduino_due_x_dbg\Release/core.a(PluggableUSB.cpp.o)
GetTickCount                                      C:\Users\TeamUiS\AppData\Local\arduino15\packages\arduino\hardware\sam\1.6.11\variants\arduino_due_x/libsam_sam3x8e_gcc_rel.a(timetick.o)
                                                  C:\Users\TeamUiS\AppData\Local\Temp\VMBuilds\Circulation\arduino_due_x_dbg\Release/core.a(wiring.c.o)
HSMCI_Handler                                     C:\Users\TeamUiS\AppData\Local\Temp\VMBuilds\Circulation\arduino_due_x_dbg\Release/core.a(cortex_handlers.c.o)
                                                  C:\Users\TeamUiS\AppData\Local\arduino15\packages\arduino\hardware\sam\1.6.11\variants\arduino_due_x/libsam_sam3x8e_gcc_rel.a(startup_sam3xa.o)
HardFault_Handler                                 C:\Users\TeamUiS\AppData\Local\Temp\VMBuilds\Circulation\arduino_due_x_dbg\Release/core.a(cortex_handlers.c.o)
                                                  C:\Users\TeamUiS\AppData\Local\arduino15\packages\arduino\hardware\sam\1.6.11\variants\arduino_due_x/libsam_sam3x8e_gcc_rel.a(startup_sam3xa.o)
MemManage_Handler                                 C:\Users\TeamUiS\AppData\Local\Temp\VMBuilds\Circulation\arduino_due_x_dbg\Release/core.a(cortex_handlers.c.o)
                                                  C:\Users\TeamUiS\AppData\Local\arduino15\packages\arduino\hardware\sam\1.6.11\variants\arduino_due_x/libsam_sam3x8e_gcc_rel.a(startup_sam3xa.o)
NMI_Handler                                       C:\Users\TeamUiS\AppData\Local\Temp\VMBuilds\Circulation\arduino_due_x_dbg\Release/core.a(cortex_handlers.c.o)
                                                  C:\Users\TeamUiS\AppData\Local\arduino15\packages\arduino\hardware\sam\1.6.11\variants\arduino_due_x/libsam_sam3x8e_gcc_rel.a(startup_sam3xa.o)
PIOA_Handler                                      C:\Users\TeamUiS\AppData\Local\Temp\VMBuilds\Circulation\arduino_due_x_dbg\Release/core.a(cortex_handlers.c.o)
                                                  C:\Users\TeamUiS\AppData\Local\arduino15\packages\arduino\hardware\sam\1.6.11\variants\arduino_due_x/libsam_sam3x8e_gcc_rel.a(startup_sam3xa.o)
PIOB_Handler                                      C:\Users\TeamUiS\AppData\Local\Temp\VMBuilds\Circulation\arduino_due_x_dbg\Release/core.a(cortex_handlers.c.o)
                                                  C:\Users\TeamUiS\AppData\Local\arduino15\packages\arduino\hardware\sam\1.6.11\variants\arduino_due_x/libsam_sam3x8e_gcc_rel.a(startup_sam3xa.o)
PIOC_Handler                                      C:\Users\TeamUiS\AppData\Local\Temp\VMBuilds\Circulation\arduino_due_x_dbg\Release/core.a(cortex_handlers.c.o)
                                                  C:\Users\TeamUiS\AppData\Local\arduino15\packages\arduino\hardware\sam\1.6.11\variants\arduino_due_x/libsam_sam3x8e_gcc_rel.a(startup_sam3xa.o)
PIOD_Handler                                      C:\Users\TeamUiS\AppData\Local\Temp\VMBuilds\Circulation\arduino_due_x_dbg\Release/core.a(cortex_handlers.c.o)
                                                  C:\Users\TeamUiS\AppData\Local\arduino15\packages\arduino\hardware\sam\1.6.11\variants\arduino_due_x/libsam_sam3x8e_gcc_rel.a(startup_sam3xa.o)
PIO_Clear                                         C:\Users\TeamUiS\AppData\Local\arduino15\packages\arduino\hardware\sam\1.6.11\variants\arduino_due_x/libsam_sam3x8e_gcc_rel.a(pio.o)
PIO_Configure                                     C:\Users\TeamUiS\AppData\Local\arduino15\packages\arduino\hardware\sam\1.6.11\variants\arduino_due_x/libsam_sam3x8e_gcc_rel.a(pio.o)
                                                  C:\Users\TeamUiS\AppData\Local\Temp\VMBuilds\Circulation\arduino_due_x_dbg\Release/core.a(wiring_digital.c.o)
                                                  C:\Users\TeamUiS\AppData\Local\Temp\VMBuilds\Circulation\arduino_due_x_dbg\Release/core.a(wiring_analog.c.o)
                                                  C:\Users\TeamUiS\AppData\Local\Temp\VMBuilds\Circulation\arduino_due_x_dbg\Release\variant\variant.cpp.o
PIO_DisableInterrupt                              C:\Users\TeamUiS\AppData\Local\arduino15\packages\arduino\hardware\sam\1.6.11\variants\arduino_due_x/libsam_sam3x8e_gcc_rel.a(pio.o)
PIO_Get                                           C:\Users\TeamUiS\AppData\Local\arduino15\packages\arduino\hardware\sam\1.6.11\variants\arduino_due_x/libsam_sam3x8e_gcc_rel.a(pio.o)
                                                  C:\Users\TeamUiS\AppData\Local\Temp\VMBuilds\Circulation\arduino_due_x_dbg\Release/core.a(wiring_digital.c.o)
PIO_GetOutputDataStatus                           C:\Users\TeamUiS\AppData\Local\arduino15\packages\arduino\hardware\sam\1.6.11\variants\arduino_due_x/libsam_sam3x8e_gcc_rel.a(pio.o)
                                                  C:\Users\TeamUiS\AppData\Local\Temp\VMBuilds\Circulation\arduino_due_x_dbg\Release/core.a(wiring_digital.c.o)
PIO_PullUp                                        C:\Users\TeamUiS\AppData\Local\arduino15\packages\arduino\hardware\sam\1.6.11\variants\arduino_due_x/libsam_sam3x8e_gcc_rel.a(pio.o)
                                                  C:\Users\TeamUiS\AppData\Local\Temp\VMBuilds\Circulation\arduino_due_x_dbg\Release/core.a(wiring_digital.c.o)
PIO_Set                                           C:\Users\TeamUiS\AppData\Local\arduino15\packages\arduino\hardware\sam\1.6.11\variants\arduino_due_x/libsam_sam3x8e_gcc_rel.a(pio.o)
PIO_SetDebounceFilter                             C:\Users\TeamUiS\AppData\Local\arduino15\packages\arduino\hardware\sam\1.6.11\variants\arduino_due_x/libsam_sam3x8e_gcc_rel.a(pio.o)
PIO_SetInput                                      C:\Users\TeamUiS\AppData\Local\arduino15\packages\arduino\hardware\sam\1.6.11\variants\arduino_due_x/libsam_sam3x8e_gcc_rel.a(pio.o)
PIO_SetOutput                                     C:\Users\TeamUiS\AppData\Local\arduino15\packages\arduino\hardware\sam\1.6.11\variants\arduino_due_x/libsam_sam3x8e_gcc_rel.a(pio.o)
                                                  C:\Users\TeamUiS\AppData\Local\Temp\VMBuilds\Circulation\arduino_due_x_dbg\Release/core.a(wiring_digital.c.o)
PIO_SetPeripheral                                 C:\Users\TeamUiS\AppData\Local\arduino15\packages\arduino\hardware\sam\1.6.11\variants\arduino_due_x/libsam_sam3x8e_gcc_rel.a(pio.o)
PMC_Handler                                       C:\Users\TeamUiS\AppData\Local\Temp\VMBuilds\Circulation\arduino_due_x_dbg\Release/core.a(cortex_handlers.c.o)
                                                  C:\Users\TeamUiS\AppData\Local\arduino15\packages\arduino\hardware\sam\1.6.11\variants\arduino_due_x/libsam_sam3x8e_gcc_rel.a(startup_sam3xa.o)
PWMC_ConfigureChannel                             C:\Users\TeamUiS\AppData\Local\arduino15\packages\arduino\hardware\sam\1.6.11\variants\arduino_due_x/libsam_sam3x8e_gcc_rel.a(pwmc.o)
                                                  C:\Users\TeamUiS\AppData\Local\Temp\VMBuilds\Circulation\arduino_due_x_dbg\Release/core.a(wiring_analog.c.o)
PWMC_ConfigureChannelExt                          C:\Users\TeamUiS\AppData\Local\arduino15\packages\arduino\hardware\sam\1.6.11\variants\arduino_due_x/libsam_sam3x8e_gcc_rel.a(pwmc.o)
PWMC_ConfigureClocks                              C:\Users\TeamUiS\AppData\Local\arduino15\packages\arduino\hardware\sam\1.6.11\variants\arduino_due_x/libsam_sam3x8e_gcc_rel.a(pwmc.o)
                                                  C:\Users\TeamUiS\AppData\Local\Temp\VMBuilds\Circulation\arduino_due_x_dbg\Release/core.a(wiring_analog.c.o)
PWMC_ConfigureComparisonUnit                      C:\Users\TeamUiS\AppData\Local\arduino15\packages\arduino\hardware\sam\1.6.11\variants\arduino_due_x/libsam_sam3x8e_gcc_rel.a(pwmc.o)
PWMC_ConfigureEventLineMode                       C:\Users\TeamUiS\AppData\Local\arduino15\packages\arduino\hardware\sam\1.6.11\variants\arduino_due_x/libsam_sam3x8e_gcc_rel.a(pwmc.o)
PWMC_ConfigureSyncChannel                         C:\Users\TeamUiS\AppData\Local\arduino15\packages\arduino\hardware\sam\1.6.11\variants\arduino_due_x/libsam_sam3x8e_gcc_rel.a(pwmc.o)
PWMC_DisableChannel                               C:\Users\TeamUiS\AppData\Local\arduino15\packages\arduino\hardware\sam\1.6.11\variants\arduino_due_x/libsam_sam3x8e_gcc_rel.a(pwmc.o)
PWMC_DisableChannelIt                             C:\Users\TeamUiS\AppData\Local\arduino15\packages\arduino\hardware\sam\1.6.11\variants\arduino_due_x/libsam_sam3x8e_gcc_rel.a(pwmc.o)
PWMC_DisableIt                                    C:\Users\TeamUiS\AppData\Local\arduino15\packages\arduino\hardware\sam\1.6.11\variants\arduino_due_x/libsam_sam3x8e_gcc_rel.a(pwmc.o)
PWMC_DisableOverrideOutput                        C:\Users\TeamUiS\AppData\Local\arduino15\packages\arduino\hardware\sam\1.6.11\variants\arduino_due_x/libsam_sam3x8e_gcc_rel.a(pwmc.o)
PWMC_EnableChannel                                C:\Users\TeamUiS\AppData\Local\arduino15\packages\arduino\hardware\sam\1.6.11\variants\arduino_due_x/libsam_sam3x8e_gcc_rel.a(pwmc.o)
                                                  C:\Users\TeamUiS\AppData\Local\Temp\VMBuilds\Circulation\arduino_due_x_dbg\Release/core.a(wiring_analog.c.o)
PWMC_EnableChannelIt                              C:\Users\TeamUiS\AppData\Local\arduino15\packages\arduino\hardware\sam\1.6.11\variants\arduino_due_x/libsam_sam3x8e_gcc_rel.a(pwmc.o)
PWMC_EnableFaultProtection                        C:\Users\TeamUiS\AppData\Local\arduino15\packages\arduino\hardware\sam\1.6.11\variants\arduino_due_x/libsam_sam3x8e_gcc_rel.a(pwmc.o)
PWMC_EnableIt                                     C:\Users\TeamUiS\AppData\Local\arduino15\packages\arduino\hardware\sam\1.6.11\variants\arduino_due_x/libsam_sam3x8e_gcc_rel.a(pwmc.o)
PWMC_EnableOverrideOutput                         C:\Users\TeamUiS\AppData\Local\arduino15\packages\arduino\hardware\sam\1.6.11\variants\arduino_due_x/libsam_sam3x8e_gcc_rel.a(pwmc.o)
PWMC_FaultClear                                   C:\Users\TeamUiS\AppData\Local\arduino15\packages\arduino\hardware\sam\1.6.11\variants\arduino_due_x/libsam_sam3x8e_gcc_rel.a(pwmc.o)
PWMC_SetDeadTime                                  C:\Users\TeamUiS\AppData\Local\arduino15\packages\arduino\hardware\sam\1.6.11\variants\arduino_due_x/libsam_sam3x8e_gcc_rel.a(pwmc.o)
PWMC_SetDutyCycle                                 C:\Users\TeamUiS\AppData\Local\arduino15\packages\arduino\hardware\sam\1.6.11\variants\arduino_due_x/libsam_sam3x8e_gcc_rel.a(pwmc.o)
                                                  C:\Users\TeamUiS\AppData\Local\Temp\VMBuilds\Circulation\arduino_due_x_dbg\Release/core.a(wiring_analog.c.o)
PWMC_SetFaultMode                                 C:\Users\TeamUiS\AppData\Local\arduino15\packages\arduino\hardware\sam\1.6.11\variants\arduino_due_x/libsam_sam3x8e_gcc_rel.a(pwmc.o)
PWMC_SetFaultProtectionValue                      C:\Users\TeamUiS\AppData\Local\arduino15\packages\arduino\hardware\sam\1.6.11\variants\arduino_due_x/libsam_sam3x8e_gcc_rel.a(pwmc.o)
PWMC_SetOverrideValue                             C:\Users\TeamUiS\AppData\Local\arduino15\packages\arduino\hardware\sam\1.6.11\variants\arduino_due_x/libsam_sam3x8e_gcc_rel.a(pwmc.o)
PWMC_SetPeriod                                    C:\Users\TeamUiS\AppData\Local\arduino15\packages\arduino\hardware\sam\1.6.11\variants\arduino_due_x/libsam_sam3x8e_gcc_rel.a(pwmc.o)
                                                  C:\Users\TeamUiS\AppData\Local\Temp\VMBuilds\Circulation\arduino_due_x_dbg\Release/core.a(wiring_analog.c.o)
PWMC_SetSyncChannelUpdatePeriod                   C:\Users\TeamUiS\AppData\Local\arduino15\packages\arduino\hardware\sam\1.6.11\variants\arduino_due_x/libsam_sam3x8e_gcc_rel.a(pwmc.o)
PWMC_SetSyncChannelUpdateUnlock                   C:\Users\TeamUiS\AppData\Local\arduino15\packages\arduino\hardware\sam\1.6.11\variants\arduino_due_x/libsam_sam3x8e_gcc_rel.a(pwmc.o)
PWMC_WriteBuffer                                  C:\Users\TeamUiS\AppData\Local\arduino15\packages\arduino\hardware\sam\1.6.11\variants\arduino_due_x/libsam_sam3x8e_gcc_rel.a(pwmc.o)
PWM_Handler                                       C:\Users\TeamUiS\AppData\Local\Temp\VMBuilds\Circulation\arduino_due_x_dbg\Release/core.a(cortex_handlers.c.o)
                                                  C:\Users\TeamUiS\AppData\Local\arduino15\packages\arduino\hardware\sam\1.6.11\variants\arduino_due_x/libsam_sam3x8e_gcc_rel.a(startup_sam3xa.o)
PendSV_Handler                                    C:\Users\TeamUiS\AppData\Local\Temp\VMBuilds\Circulation\arduino_due_x_dbg\Release/core.a(cortex_handlers.c.o)
                                                  C:\Users\TeamUiS\AppData\Local\arduino15\packages\arduino\hardware\sam\1.6.11\variants\arduino_due_x/libsam_sam3x8e_gcc_rel.a(startup_sam3xa.o)
PluggableUSB()                                    C:\Users\TeamUiS\AppData\Local\Temp\VMBuilds\Circulation\arduino_due_x_dbg\Release/core.a(PluggableUSB.cpp.o)
                                                  C:\Users\TeamUiS\AppData\Local\Temp\VMBuilds\Circulation\arduino_due_x_dbg\Release/core.a(USBCore.cpp.o)
PluggableUSB_::PluggableUSB_()                    C:\Users\TeamUiS\AppData\Local\Temp\VMBuilds\Circulation\arduino_due_x_dbg\Release/core.a(PluggableUSB.cpp.o)
PluggableUSB_::PluggableUSB_()                    C:\Users\TeamUiS\AppData\Local\Temp\VMBuilds\Circulation\arduino_due_x_dbg\Release/core.a(PluggableUSB.cpp.o)
PluggableUSB_::getDescriptor(USBSetup&)           C:\Users\TeamUiS\AppData\Local\Temp\VMBuilds\Circulation\arduino_due_x_dbg\Release/core.a(PluggableUSB.cpp.o)
                                                  C:\Users\TeamUiS\AppData\Local\Temp\VMBuilds\Circulation\arduino_due_x_dbg\Release/core.a(USBCore.cpp.o)
PluggableUSB_::getInterface(unsigned char*)       C:\Users\TeamUiS\AppData\Local\Temp\VMBuilds\Circulation\arduino_due_x_dbg\Release/core.a(PluggableUSB.cpp.o)
                                                  C:\Users\TeamUiS\AppData\Local\Temp\VMBuilds\Circulation\arduino_due_x_dbg\Release/core.a(USBCore.cpp.o)
PluggableUSB_::getShortName(char*)                C:\Users\TeamUiS\AppData\Local\Temp\VMBuilds\Circulation\arduino_due_x_dbg\Release/core.a(PluggableUSB.cpp.o)
                                                  C:\Users\TeamUiS\AppData\Local\Temp\VMBuilds\Circulation\arduino_due_x_dbg\Release/core.a(USBCore.cpp.o)
PluggableUSB_::plug(PluggableUSBModule*)          C:\Users\TeamUiS\AppData\Local\Temp\VMBuilds\Circulation\arduino_due_x_dbg\Release/core.a(PluggableUSB.cpp.o)
PluggableUSB_::setup(USBSetup&)                   C:\Users\TeamUiS\AppData\Local\Temp\VMBuilds\Circulation\arduino_due_x_dbg\Release/core.a(PluggableUSB.cpp.o)
                                                  C:\Users\TeamUiS\AppData\Local\Temp\VMBuilds\Circulation\arduino_due_x_dbg\Release/core.a(USBCore.cpp.o)
Print::print(Printable const&)                    C:\Users\TeamUiS\AppData\Local\Temp\VMBuilds\Circulation\arduino_due_x_dbg\Release/core.a(Print.cpp.o)
Print::print(String const&)                       C:\Users\TeamUiS\AppData\Local\Temp\VMBuilds\Circulation\arduino_due_x_dbg\Release/core.a(Print.cpp.o)
Print::print(__FlashStringHelper const*)          C:\Users\TeamUiS\AppData\Local\Temp\VMBuilds\Circulation\arduino_due_x_dbg\Release/core.a(Print.cpp.o)
Print::print(char const*)                         C:\Users\TeamUiS\AppData\Local\Temp\VMBuilds\Circulation\arduino_due_x_dbg\Release/core.a(Print.cpp.o)
                                                  C:\Users\TeamUiS\AppData\Local\Temp\VMBuilds\Circulation\arduino_due_x_dbg\Release\Circulation.cpp.o
Print::print(char)                                C:\Users\TeamUiS\AppData\Local\Temp\VMBuilds\Circulation\arduino_due_x_dbg\Release/core.a(Print.cpp.o)
Print::print(double, int)                         C:\Users\TeamUiS\AppData\Local\Temp\VMBuilds\Circulation\arduino_due_x_dbg\Release/core.a(Print.cpp.o)
                                                  C:\Users\TeamUiS\AppData\Local\Temp\VMBuilds\Circulation\arduino_due_x_dbg\Release\Circulation.cpp.o
Print::print(int, int)                            C:\Users\TeamUiS\AppData\Local\Temp\VMBuilds\Circulation\arduino_due_x_dbg\Release/core.a(Print.cpp.o)
                                                  C:\Users\TeamUiS\AppData\Local\Temp\VMBuilds\Circulation\arduino_due_x_dbg\Release\Circulation.cpp.o
Print::print(long, int)                           C:\Users\TeamUiS\AppData\Local\Temp\VMBuilds\Circulation\arduino_due_x_dbg\Release/core.a(Print.cpp.o)
Print::print(unsigned char, int)                  C:\Users\TeamUiS\AppData\Local\Temp\VMBuilds\Circulation\arduino_due_x_dbg\Release/core.a(Print.cpp.o)
Print::print(unsigned int, int)                   C:\Users\TeamUiS\AppData\Local\Temp\VMBuilds\Circulation\arduino_due_x_dbg\Release/core.a(Print.cpp.o)
Print::print(unsigned long, int)                  C:\Users\TeamUiS\AppData\Local\Temp\VMBuilds\Circulation\arduino_due_x_dbg\Release/core.a(Print.cpp.o)
Print::printFloat(double, unsigned char)          C:\Users\TeamUiS\AppData\Local\Temp\VMBuilds\Circulation\arduino_due_x_dbg\Release/core.a(Print.cpp.o)
Print::printNumber(unsigned long, unsigned char)  C:\Users\TeamUiS\AppData\Local\Temp\VMBuilds\Circulation\arduino_due_x_dbg\Release/core.a(Print.cpp.o)
Print::println()                                  C:\Users\TeamUiS\AppData\Local\Temp\VMBuilds\Circulation\arduino_due_x_dbg\Release/core.a(Print.cpp.o)
Print::println(Printable const&)                  C:\Users\TeamUiS\AppData\Local\Temp\VMBuilds\Circulation\arduino_due_x_dbg\Release/core.a(Print.cpp.o)
Print::println(String const&)                     C:\Users\TeamUiS\AppData\Local\Temp\VMBuilds\Circulation\arduino_due_x_dbg\Release/core.a(Print.cpp.o)
Print::println(__FlashStringHelper const*)        C:\Users\TeamUiS\AppData\Local\Temp\VMBuilds\Circulation\arduino_due_x_dbg\Release/core.a(Print.cpp.o)
Print::println(char const*)                       C:\Users\TeamUiS\AppData\Local\Temp\VMBuilds\Circulation\arduino_due_x_dbg\Release/core.a(Print.cpp.o)
                                                  C:\Users\TeamUiS\AppData\Local\Temp\VMBuilds\Circulation\arduino_due_x_dbg\Release\Circulation.cpp.o
Print::println(char)                              C:\Users\TeamUiS\AppData\Local\Temp\VMBuilds\Circulation\arduino_due_x_dbg\Release/core.a(Print.cpp.o)
Print::println(double, int)                       C:\Users\TeamUiS\AppData\Local\Temp\VMBuilds\Circulation\arduino_due_x_dbg\Release/core.a(Print.cpp.o)
Print::println(int, int)                          C:\Users\TeamUiS\AppData\Local\Temp\VMBuilds\Circulation\arduino_due_x_dbg\Release/core.a(Print.cpp.o)
Print::println(long, int)                         C:\Users\TeamUiS\AppData\Local\Temp\VMBuilds\Circulation\arduino_due_x_dbg\Release/core.a(Print.cpp.o)
Print::println(unsigned char, int)                C:\Users\TeamUiS\AppData\Local\Temp\VMBuilds\Circulation\arduino_due_x_dbg\Release/core.a(Print.cpp.o)
Print::println(unsigned int, int)                 C:\Users\TeamUiS\AppData\Local\Temp\VMBuilds\Circulation\arduino_due_x_dbg\Release/core.a(Print.cpp.o)
Print::println(unsigned long, int)                C:\Users\TeamUiS\AppData\Local\Temp\VMBuilds\Circulation\arduino_due_x_dbg\Release/core.a(Print.cpp.o)
Print::write(char const*)                         C:\Users\TeamUiS\AppData\Local\Temp\VMBuilds\Circulation\arduino_due_x_dbg\Release/core.a(Print.cpp.o)
Print::write(unsigned char const*, unsigned int)  C:\Users\TeamUiS\AppData\Local\Temp\VMBuilds\Circulation\arduino_due_x_dbg\Release/core.a(Print.cpp.o)
                                                  C:\Users\TeamUiS\AppData\Local\Temp\VMBuilds\Circulation\arduino_due_x_dbg\Release/core.a(USARTClass.cpp.o)
                                                  C:\Users\TeamUiS\AppData\Local\Temp\VMBuilds\Circulation\arduino_due_x_dbg\Release/core.a(UARTClass.cpp.o)
RSTC_Handler                                      C:\Users\TeamUiS\AppData\Local\Temp\VMBuilds\Circulation\arduino_due_x_dbg\Release/core.a(cortex_handlers.c.o)
                                                  C:\Users\TeamUiS\AppData\Local\arduino15\packages\arduino\hardware\sam\1.6.11\variants\arduino_due_x/libsam_sam3x8e_gcc_rel.a(startup_sam3xa.o)
RTC_Handler                                       C:\Users\TeamUiS\AppData\Local\Temp\VMBuilds\Circulation\arduino_due_x_dbg\Release/core.a(cortex_handlers.c.o)
                                                  C:\Users\TeamUiS\AppData\Local\arduino15\packages\arduino\hardware\sam\1.6.11\variants\arduino_due_x/libsam_sam3x8e_gcc_rel.a(startup_sam3xa.o)
RTT_Handler                                       C:\Users\TeamUiS\AppData\Local\Temp\VMBuilds\Circulation\arduino_due_x_dbg\Release/core.a(cortex_handlers.c.o)
                                                  C:\Users\TeamUiS\AppData\Local\arduino15\packages\arduino\hardware\sam\1.6.11\variants\arduino_due_x/libsam_sam3x8e_gcc_rel.a(startup_sam3xa.o)
Reset_Handler                                     C:\Users\TeamUiS\AppData\Local\arduino15\packages\arduino\hardware\sam\1.6.11\variants\arduino_due_x/libsam_sam3x8e_gcc_rel.a(startup_sam3xa.o)
RingBuffer::RingBuffer()                          C:\Users\TeamUiS\AppData\Local\Temp\VMBuilds\Circulation\arduino_due_x_dbg\Release/core.a(RingBuffer.cpp.o)
RingBuffer::RingBuffer()                          C:\Users\TeamUiS\AppData\Local\Temp\VMBuilds\Circulation\arduino_due_x_dbg\Release/core.a(RingBuffer.cpp.o)
                                                  C:\Users\TeamUiS\AppData\Local\Temp\VMBuilds\Circulation\arduino_due_x_dbg\Release\variant\variant.cpp.o
RingBuffer::store_char(unsigned char)             C:\Users\TeamUiS\AppData\Local\Temp\VMBuilds\Circulation\arduino_due_x_dbg\Release/core.a(RingBuffer.cpp.o)
                                                  C:\Users\TeamUiS\AppData\Local\Temp\VMBuilds\Circulation\arduino_due_x_dbg\Release/core.a(UARTClass.cpp.o)
RxLEDPulse                                        C:\Users\TeamUiS\AppData\Local\Temp\VMBuilds\Circulation\arduino_due_x_dbg\Release/core.a(USBCore.cpp.o)
SMC_Handler                                       C:\Users\TeamUiS\AppData\Local\Temp\VMBuilds\Circulation\arduino_due_x_dbg\Release/core.a(cortex_handlers.c.o)
                                                  C:\Users\TeamUiS\AppData\Local\arduino15\packages\arduino\hardware\sam\1.6.11\variants\arduino_due_x/libsam_sam3x8e_gcc_rel.a(startup_sam3xa.o)
SPI0_Handler                                      C:\Users\TeamUiS\AppData\Local\Temp\VMBuilds\Circulation\arduino_due_x_dbg\Release/core.a(cortex_handlers.c.o)
                                                  C:\Users\TeamUiS\AppData\Local\arduino15\packages\arduino\hardware\sam\1.6.11\variants\arduino_due_x/libsam_sam3x8e_gcc_rel.a(startup_sam3xa.o)
SSC_Handler                                       C:\Users\TeamUiS\AppData\Local\Temp\VMBuilds\Circulation\arduino_due_x_dbg\Release/core.a(cortex_handlers.c.o)
                                                  C:\Users\TeamUiS\AppData\Local\arduino15\packages\arduino\hardware\sam\1.6.11\variants\arduino_due_x/libsam_sam3x8e_gcc_rel.a(startup_sam3xa.o)
STRING_LANGUAGE                                   C:\Users\TeamUiS\AppData\Local\Temp\VMBuilds\Circulation\arduino_due_x_dbg\Release/core.a(USBCore.cpp.o)
STRING_MANUFACTURER                               C:\Users\TeamUiS\AppData\Local\Temp\VMBuilds\Circulation\arduino_due_x_dbg\Release/core.a(USBCore.cpp.o)
STRING_PRODUCT                                    C:\Users\TeamUiS\AppData\Local\Temp\VMBuilds\Circulation\arduino_due_x_dbg\Release/core.a(USBCore.cpp.o)
SUPC_Handler                                      C:\Users\TeamUiS\AppData\Local\Temp\VMBuilds\Circulation\arduino_due_x_dbg\Release/core.a(cortex_handlers.c.o)
                                                  C:\Users\TeamUiS\AppData\Local\arduino15\packages\arduino\hardware\sam\1.6.11\variants\arduino_due_x/libsam_sam3x8e_gcc_rel.a(startup_sam3xa.o)
SVC_Handler                                       C:\Users\TeamUiS\AppData\Local\Temp\VMBuilds\Circulation\arduino_due_x_dbg\Release/core.a(cortex_handlers.c.o)
                                                  C:\Users\TeamUiS\AppData\Local\arduino15\packages\arduino\hardware\sam\1.6.11\variants\arduino_due_x/libsam_sam3x8e_gcc_rel.a(startup_sam3xa.o)
Serial                                            C:\Users\TeamUiS\AppData\Local\Temp\VMBuilds\Circulation\arduino_due_x_dbg\Release\variant\variant.cpp.o
                                                  C:\Users\TeamUiS\AppData\Local\Temp\VMBuilds\Circulation\arduino_due_x_dbg\Release\Circulation.cpp.o
Serial1                                           C:\Users\TeamUiS\AppData\Local\Temp\VMBuilds\Circulation\arduino_due_x_dbg\Release\variant\variant.cpp.o
Serial2                                           C:\Users\TeamUiS\AppData\Local\Temp\VMBuilds\Circulation\arduino_due_x_dbg\Release\variant\variant.cpp.o
Serial3                                           C:\Users\TeamUiS\AppData\Local\Temp\VMBuilds\Circulation\arduino_due_x_dbg\Release\variant\variant.cpp.o
SerialUSB                                         C:\Users\TeamUiS\AppData\Local\Temp\VMBuilds\Circulation\arduino_due_x_dbg\Release/core.a(CDC.cpp.o)
                                                  C:\Users\TeamUiS\AppData\Local\Temp\VMBuilds\Circulation\arduino_due_x_dbg\Release/core.a(USBCore.cpp.o)
Serial_::accept()                                 C:\Users\TeamUiS\AppData\Local\Temp\VMBuilds\Circulation\arduino_due_x_dbg\Release/core.a(CDC.cpp.o)
                                                  C:\Users\TeamUiS\AppData\Local\Temp\VMBuilds\Circulation\arduino_due_x_dbg\Release/core.a(USBCore.cpp.o)
Serial_::available()                              C:\Users\TeamUiS\AppData\Local\Temp\VMBuilds\Circulation\arduino_due_x_dbg\Release/core.a(CDC.cpp.o)
Serial_::availableForWrite()                      C:\Users\TeamUiS\AppData\Local\Temp\VMBuilds\Circulation\arduino_due_x_dbg\Release/core.a(CDC.cpp.o)
Serial_::baud()                                   C:\Users\TeamUiS\AppData\Local\Temp\VMBuilds\Circulation\arduino_due_x_dbg\Release/core.a(CDC.cpp.o)
Serial_::begin(unsigned long)                     C:\Users\TeamUiS\AppData\Local\Temp\VMBuilds\Circulation\arduino_due_x_dbg\Release/core.a(CDC.cpp.o)
Serial_::begin(unsigned long, unsigned char)      C:\Users\TeamUiS\AppData\Local\Temp\VMBuilds\Circulation\arduino_due_x_dbg\Release/core.a(CDC.cpp.o)
Serial_::dtr()                                    C:\Users\TeamUiS\AppData\Local\Temp\VMBuilds\Circulation\arduino_due_x_dbg\Release/core.a(CDC.cpp.o)
Serial_::end()                                    C:\Users\TeamUiS\AppData\Local\Temp\VMBuilds\Circulation\arduino_due_x_dbg\Release/core.a(CDC.cpp.o)
Serial_::flush()                                  C:\Users\TeamUiS\AppData\Local\Temp\VMBuilds\Circulation\arduino_due_x_dbg\Release/core.a(CDC.cpp.o)
Serial_::numbits()                                C:\Users\TeamUiS\AppData\Local\Temp\VMBuilds\Circulation\arduino_due_x_dbg\Release/core.a(CDC.cpp.o)
Serial_::operator bool()                          C:\Users\TeamUiS\AppData\Local\Temp\VMBuilds\Circulation\arduino_due_x_dbg\Release/core.a(CDC.cpp.o)
Serial_::paritytype()                             C:\Users\TeamUiS\AppData\Local\Temp\VMBuilds\Circulation\arduino_due_x_dbg\Release/core.a(CDC.cpp.o)
Serial_::peek()                                   C:\Users\TeamUiS\AppData\Local\Temp\VMBuilds\Circulation\arduino_due_x_dbg\Release/core.a(CDC.cpp.o)
Serial_::read()                                   C:\Users\TeamUiS\AppData\Local\Temp\VMBuilds\Circulation\arduino_due_x_dbg\Release/core.a(CDC.cpp.o)
Serial_::readBreak()                              C:\Users\TeamUiS\AppData\Local\Temp\VMBuilds\Circulation\arduino_due_x_dbg\Release/core.a(CDC.cpp.o)
Serial_::rts()                                    C:\Users\TeamUiS\AppData\Local\Temp\VMBuilds\Circulation\arduino_due_x_dbg\Release/core.a(CDC.cpp.o)
Serial_::stopbits()                               C:\Users\TeamUiS\AppData\Local\Temp\VMBuilds\Circulation\arduino_due_x_dbg\Release/core.a(CDC.cpp.o)
Serial_::write(unsigned char const*, unsigned int) C:\Users\TeamUiS\AppData\Local\Temp\VMBuilds\Circulation\arduino_due_x_dbg\Release/core.a(CDC.cpp.o)
Serial_::write(unsigned char)                     C:\Users\TeamUiS\AppData\Local\Temp\VMBuilds\Circulation\arduino_due_x_dbg\Release/core.a(CDC.cpp.o)
Sleep                                             C:\Users\TeamUiS\AppData\Local\arduino15\packages\arduino\hardware\sam\1.6.11\variants\arduino_due_x/libsam_sam3x8e_gcc_rel.a(timetick.o)
SysTick_Handler                                   C:\Users\TeamUiS\AppData\Local\Temp\VMBuilds\Circulation\arduino_due_x_dbg\Release/core.a(cortex_handlers.c.o)
                                                  C:\Users\TeamUiS\AppData\Local\arduino15\packages\arduino\hardware\sam\1.6.11\variants\arduino_due_x/libsam_sam3x8e_gcc_rel.a(startup_sam3xa.o)
SystemCoreClock                                   C:\Users\TeamUiS\AppData\Local\arduino15\packages\arduino\hardware\sam\1.6.11\variants\arduino_due_x/libsam_sam3x8e_gcc_rel.a(system_sam3xa.o)
                                                  C:\Users\TeamUiS\AppData\Local\Temp\VMBuilds\Circulation\arduino_due_x_dbg\Release/core.a(UARTClass.cpp.o)
                                                  C:\Users\TeamUiS\AppData\Local\Temp\VMBuilds\Circulation\arduino_due_x_dbg\Release\variant\variant.cpp.o
SystemCoreClockUpdate                             C:\Users\TeamUiS\AppData\Local\arduino15\packages\arduino\hardware\sam\1.6.11\variants\arduino_due_x/libsam_sam3x8e_gcc_rel.a(system_sam3xa.o)
SystemInit                                        C:\Users\TeamUiS\AppData\Local\arduino15\packages\arduino\hardware\sam\1.6.11\variants\arduino_due_x/libsam_sam3x8e_gcc_rel.a(system_sam3xa.o)
                                                  C:\Users\TeamUiS\AppData\Local\Temp\VMBuilds\Circulation\arduino_due_x_dbg\Release\variant\variant.cpp.o
TC0_Handler                                       C:\Users\TeamUiS\AppData\Local\Temp\VMBuilds\Circulation\arduino_due_x_dbg\Release/core.a(cortex_handlers.c.o)
                                                  C:\Users\TeamUiS\AppData\Local\arduino15\packages\arduino\hardware\sam\1.6.11\variants\arduino_due_x/libsam_sam3x8e_gcc_rel.a(startup_sam3xa.o)
TC1_Handler                                       C:\Users\TeamUiS\AppData\Local\Temp\VMBuilds\Circulation\arduino_due_x_dbg\Release/core.a(cortex_handlers.c.o)
                                                  C:\Users\TeamUiS\AppData\Local\arduino15\packages\arduino\hardware\sam\1.6.11\variants\arduino_due_x/libsam_sam3x8e_gcc_rel.a(startup_sam3xa.o)
TC2_Handler                                       C:\Users\TeamUiS\AppData\Local\Temp\VMBuilds\Circulation\arduino_due_x_dbg\Release/core.a(cortex_handlers.c.o)
                                                  C:\Users\TeamUiS\AppData\Local\arduino15\packages\arduino\hardware\sam\1.6.11\variants\arduino_due_x/libsam_sam3x8e_gcc_rel.a(startup_sam3xa.o)
TC3_Handler                                       C:\Users\TeamUiS\AppData\Local\Temp\VMBuilds\Circulation\arduino_due_x_dbg\Release/core.a(cortex_handlers.c.o)
                                                  C:\Users\TeamUiS\AppData\Local\arduino15\packages\arduino\hardware\sam\1.6.11\variants\arduino_due_x/libsam_sam3x8e_gcc_rel.a(startup_sam3xa.o)
TC4_Handler                                       C:\Users\TeamUiS\AppData\Local\Temp\VMBuilds\Circulation\arduino_due_x_dbg\Release/core.a(cortex_handlers.c.o)
                                                  C:\Users\TeamUiS\AppData\Local\arduino15\packages\arduino\hardware\sam\1.6.11\variants\arduino_due_x/libsam_sam3x8e_gcc_rel.a(startup_sam3xa.o)
TC5_Handler                                       C:\Users\TeamUiS\AppData\Local\Temp\VMBuilds\Circulation\arduino_due_x_dbg\Release/core.a(cortex_handlers.c.o)
                                                  C:\Users\TeamUiS\AppData\Local\arduino15\packages\arduino\hardware\sam\1.6.11\variants\arduino_due_x/libsam_sam3x8e_gcc_rel.a(startup_sam3xa.o)
TC6_Handler                                       C:\Users\TeamUiS\AppData\Local\Temp\VMBuilds\Circulation\arduino_due_x_dbg\Release/core.a(cortex_handlers.c.o)
                                                  C:\Users\TeamUiS\AppData\Local\arduino15\packages\arduino\hardware\sam\1.6.11\variants\arduino_due_x/libsam_sam3x8e_gcc_rel.a(startup_sam3xa.o)
TC7_Handler                                       C:\Users\TeamUiS\AppData\Local\Temp\VMBuilds\Circulation\arduino_due_x_dbg\Release/core.a(cortex_handlers.c.o)
                                                  C:\Users\TeamUiS\AppData\Local\arduino15\packages\arduino\hardware\sam\1.6.11\variants\arduino_due_x/libsam_sam3x8e_gcc_rel.a(startup_sam3xa.o)
TC8_Handler                                       C:\Users\TeamUiS\AppData\Local\Temp\VMBuilds\Circulation\arduino_due_x_dbg\Release/core.a(cortex_handlers.c.o)
                                                  C:\Users\TeamUiS\AppData\Local\arduino15\packages\arduino\hardware\sam\1.6.11\variants\arduino_due_x/libsam_sam3x8e_gcc_rel.a(startup_sam3xa.o)
TC_Configure                                      C:\Users\TeamUiS\AppData\Local\arduino15\packages\arduino\hardware\sam\1.6.11\variants\arduino_due_x/libsam_sam3x8e_gcc_rel.a(tc.o)
                                                  C:\Users\TeamUiS\AppData\Local\Temp\VMBuilds\Circulation\arduino_due_x_dbg\Release/core.a(wiring_analog.c.o)
TC_FindMckDivisor                                 C:\Users\TeamUiS\AppData\Local\arduino15\packages\arduino\hardware\sam\1.6.11\variants\arduino_due_x/libsam_sam3x8e_gcc_rel.a(tc.o)
TC_GetStatus                                      C:\Users\TeamUiS\AppData\Local\arduino15\packages\arduino\hardware\sam\1.6.11\variants\arduino_due_x/libsam_sam3x8e_gcc_rel.a(tc.o)
TC_ReadCV                                         C:\Users\TeamUiS\AppData\Local\arduino15\packages\arduino\hardware\sam\1.6.11\variants\arduino_due_x/libsam_sam3x8e_gcc_rel.a(tc.o)
TC_SetRA                                          C:\Users\TeamUiS\AppData\Local\arduino15\packages\arduino\hardware\sam\1.6.11\variants\arduino_due_x/libsam_sam3x8e_gcc_rel.a(tc.o)
                                                  C:\Users\TeamUiS\AppData\Local\Temp\VMBuilds\Circulation\arduino_due_x_dbg\Release/core.a(wiring_analog.c.o)
TC_SetRB                                          C:\Users\TeamUiS\AppData\Local\arduino15\packages\arduino\hardware\sam\1.6.11\variants\arduino_due_x/libsam_sam3x8e_gcc_rel.a(tc.o)
                                                  C:\Users\TeamUiS\AppData\Local\Temp\VMBuilds\Circulation\arduino_due_x_dbg\Release/core.a(wiring_analog.c.o)
TC_SetRC                                          C:\Users\TeamUiS\AppData\Local\arduino15\packages\arduino\hardware\sam\1.6.11\variants\arduino_due_x/libsam_sam3x8e_gcc_rel.a(tc.o)
                                                  C:\Users\TeamUiS\AppData\Local\Temp\VMBuilds\Circulation\arduino_due_x_dbg\Release/core.a(wiring_analog.c.o)
TC_Start                                          C:\Users\TeamUiS\AppData\Local\arduino15\packages\arduino\hardware\sam\1.6.11\variants\arduino_due_x/libsam_sam3x8e_gcc_rel.a(tc.o)
                                                  C:\Users\TeamUiS\AppData\Local\Temp\VMBuilds\Circulation\arduino_due_x_dbg\Release/core.a(wiring_analog.c.o)
TC_Stop                                           C:\Users\TeamUiS\AppData\Local\arduino15\packages\arduino\hardware\sam\1.6.11\variants\arduino_due_x/libsam_sam3x8e_gcc_rel.a(tc.o)
TRNG_Handler                                      C:\Users\TeamUiS\AppData\Local\Temp\VMBuilds\Circulation\arduino_due_x_dbg\Release/core.a(cortex_handlers.c.o)
                                                  C:\Users\TeamUiS\AppData\Local\arduino15\packages\arduino\hardware\sam\1.6.11\variants\arduino_due_x/libsam_sam3x8e_gcc_rel.a(startup_sam3xa.o)
TWI0_Handler                                      C:\Users\TeamUiS\AppData\Local\Temp\VMBuilds\Circulation\arduino_due_x_dbg\Release/core.a(cortex_handlers.c.o)
                                                  C:\Users\TeamUiS\AppData\Local\arduino15\packages\arduino\hardware\sam\1.6.11\variants\arduino_due_x/libsam_sam3x8e_gcc_rel.a(startup_sam3xa.o)
TWI1_Handler                                      C:\Users\TeamUiS\AppData\Local\Temp\VMBuilds\Circulation\arduino_due_x_dbg\Release/core.a(cortex_handlers.c.o)
                                                  C:\Users\TeamUiS\AppData\Local\arduino15\packages\arduino\hardware\sam\1.6.11\variants\arduino_due_x/libsam_sam3x8e_gcc_rel.a(startup_sam3xa.o)
TimeTick_Configure                                C:\Users\TeamUiS\AppData\Local\arduino15\packages\arduino\hardware\sam\1.6.11\variants\arduino_due_x/libsam_sam3x8e_gcc_rel.a(timetick.o)
TimeTick_Increment                                C:\Users\TeamUiS\AppData\Local\arduino15\packages\arduino\hardware\sam\1.6.11\variants\arduino_due_x/libsam_sam3x8e_gcc_rel.a(timetick.o)
                                                  C:\Users\TeamUiS\AppData\Local\Temp\VMBuilds\Circulation\arduino_due_x_dbg\Release/core.a(cortex_handlers.c.o)
TxLEDPulse                                        C:\Users\TeamUiS\AppData\Local\Temp\VMBuilds\Circulation\arduino_due_x_dbg\Release/core.a(USBCore.cpp.o)
UARTClass::IrqHandler()                           C:\Users\TeamUiS\AppData\Local\Temp\VMBuilds\Circulation\arduino_due_x_dbg\Release/core.a(UARTClass.cpp.o)
                                                  C:\Users\TeamUiS\AppData\Local\Temp\VMBuilds\Circulation\arduino_due_x_dbg\Release\variant\variant.cpp.o
UARTClass::UARTClass(Uart*, IRQn, unsigned long, RingBuffer*, RingBuffer*) C:\Users\TeamUiS\AppData\Local\Temp\VMBuilds\Circulation\arduino_due_x_dbg\Release/core.a(UARTClass.cpp.o)
                                                  C:\Users\TeamUiS\AppData\Local\Temp\VMBuilds\Circulation\arduino_due_x_dbg\Release/core.a(USARTClass.cpp.o)
UARTClass::UARTClass(Uart*, IRQn, unsigned long, RingBuffer*, RingBuffer*) C:\Users\TeamUiS\AppData\Local\Temp\VMBuilds\Circulation\arduino_due_x_dbg\Release/core.a(UARTClass.cpp.o)
                                                  C:\Users\TeamUiS\AppData\Local\Temp\VMBuilds\Circulation\arduino_due_x_dbg\Release\variant\variant.cpp.o
UARTClass::available()                            C:\Users\TeamUiS\AppData\Local\Temp\VMBuilds\Circulation\arduino_due_x_dbg\Release/core.a(UARTClass.cpp.o)
                                                  C:\Users\TeamUiS\AppData\Local\Temp\VMBuilds\Circulation\arduino_due_x_dbg\Release/core.a(USARTClass.cpp.o)
                                                  C:\Users\TeamUiS\AppData\Local\Temp\VMBuilds\Circulation\arduino_due_x_dbg\Release\variant\variant.cpp.o
UARTClass::availableForWrite()                    C:\Users\TeamUiS\AppData\Local\Temp\VMBuilds\Circulation\arduino_due_x_dbg\Release/core.a(UARTClass.cpp.o)
UARTClass::begin(unsigned long)                   C:\Users\TeamUiS\AppData\Local\Temp\VMBuilds\Circulation\arduino_due_x_dbg\Release/core.a(UARTClass.cpp.o)
                                                  C:\Users\TeamUiS\AppData\Local\Temp\VMBuilds\Circulation\arduino_due_x_dbg\Release\Circulation.cpp.o
UARTClass::begin(unsigned long, UARTClass::UARTModes) C:\Users\TeamUiS\AppData\Local\Temp\VMBuilds\Circulation\arduino_due_x_dbg\Release/core.a(UARTClass.cpp.o)
UARTClass::end()                                  C:\Users\TeamUiS\AppData\Local\Temp\VMBuilds\Circulation\arduino_due_x_dbg\Release/core.a(UARTClass.cpp.o)
                                                  C:\Users\TeamUiS\AppData\Local\Temp\VMBuilds\Circulation\arduino_due_x_dbg\Release/core.a(USARTClass.cpp.o)
UARTClass::flush()                                C:\Users\TeamUiS\AppData\Local\Temp\VMBuilds\Circulation\arduino_due_x_dbg\Release/core.a(UARTClass.cpp.o)
                                                  C:\Users\TeamUiS\AppData\Local\Temp\VMBuilds\Circulation\arduino_due_x_dbg\Release/core.a(USARTClass.cpp.o)
UARTClass::getInterruptPriority()                 C:\Users\TeamUiS\AppData\Local\Temp\VMBuilds\Circulation\arduino_due_x_dbg\Release/core.a(UARTClass.cpp.o)
UARTClass::init(unsigned long, unsigned long)     C:\Users\TeamUiS\AppData\Local\Temp\VMBuilds\Circulation\arduino_due_x_dbg\Release/core.a(UARTClass.cpp.o)
                                                  C:\Users\TeamUiS\AppData\Local\Temp\VMBuilds\Circulation\arduino_due_x_dbg\Release/core.a(USARTClass.cpp.o)
UARTClass::operator bool()                        C:\Users\TeamUiS\AppData\Local\Temp\VMBuilds\Circulation\arduino_due_x_dbg\Release/core.a(UARTClass.cpp.o)
                                                  C:\Users\TeamUiS\AppData\Local\Temp\VMBuilds\Circulation\arduino_due_x_dbg\Release/core.a(USARTClass.cpp.o)
UARTClass::peek()                                 C:\Users\TeamUiS\AppData\Local\Temp\VMBuilds\Circulation\arduino_due_x_dbg\Release/core.a(UARTClass.cpp.o)
                                                  C:\Users\TeamUiS\AppData\Local\Temp\VMBuilds\Circulation\arduino_due_x_dbg\Release/core.a(USARTClass.cpp.o)
UARTClass::read()                                 C:\Users\TeamUiS\AppData\Local\Temp\VMBuilds\Circulation\arduino_due_x_dbg\Release/core.a(UARTClass.cpp.o)
                                                  C:\Users\TeamUiS\AppData\Local\Temp\VMBuilds\Circulation\arduino_due_x_dbg\Release/core.a(USARTClass.cpp.o)
                                                  C:\Users\TeamUiS\AppData\Local\Temp\VMBuilds\Circulation\arduino_due_x_dbg\Release\Circulation.cpp.o
UARTClass::setInterruptPriority(unsigned long)    C:\Users\TeamUiS\AppData\Local\Temp\VMBuilds\Circulation\arduino_due_x_dbg\Release/core.a(UARTClass.cpp.o)
UARTClass::write(unsigned char)                   C:\Users\TeamUiS\AppData\Local\Temp\VMBuilds\Circulation\arduino_due_x_dbg\Release/core.a(UARTClass.cpp.o)
                                                  C:\Users\TeamUiS\AppData\Local\Temp\VMBuilds\Circulation\arduino_due_x_dbg\Release/core.a(USARTClass.cpp.o)
UART_Handler                                      C:\Users\TeamUiS\AppData\Local\Temp\VMBuilds\Circulation\arduino_due_x_dbg\Release\variant\variant.cpp.o
                                                  C:\Users\TeamUiS\AppData\Local\arduino15\packages\arduino\hardware\sam\1.6.11\variants\arduino_due_x/libsam_sam3x8e_gcc_rel.a(startup_sam3xa.o)
UDD_Attach                                        C:\Users\TeamUiS\AppData\Local\arduino15\packages\arduino\hardware\sam\1.6.11\variants\arduino_due_x/libsam_sam3x8e_gcc_rel.a(uotghs_device.o)
                                                  C:\Users\TeamUiS\AppData\Local\Temp\VMBuilds\Circulation\arduino_due_x_dbg\Release/core.a(USBCore.cpp.o)
UDD_ClearIN                                       C:\Users\TeamUiS\AppData\Local\arduino15\packages\arduino\hardware\sam\1.6.11\variants\arduino_due_x/libsam_sam3x8e_gcc_rel.a(uotghs_device.o)
                                                  C:\Users\TeamUiS\AppData\Local\Temp\VMBuilds\Circulation\arduino_due_x_dbg\Release/core.a(USBCore.cpp.o)
UDD_ClearOUT                                      C:\Users\TeamUiS\AppData\Local\arduino15\packages\arduino\hardware\sam\1.6.11\variants\arduino_due_x/libsam_sam3x8e_gcc_rel.a(uotghs_device.o)
                                                  C:\Users\TeamUiS\AppData\Local\Temp\VMBuilds\Circulation\arduino_due_x_dbg\Release/core.a(USBCore.cpp.o)
UDD_ClearSetupInt                                 C:\Users\TeamUiS\AppData\Local\arduino15\packages\arduino\hardware\sam\1.6.11\variants\arduino_due_x/libsam_sam3x8e_gcc_rel.a(uotghs_device.o)
                                                  C:\Users\TeamUiS\AppData\Local\Temp\VMBuilds\Circulation\arduino_due_x_dbg\Release/core.a(USBCore.cpp.o)
UDD_Detach                                        C:\Users\TeamUiS\AppData\Local\arduino15\packages\arduino\hardware\sam\1.6.11\variants\arduino_due_x/libsam_sam3x8e_gcc_rel.a(uotghs_device.o)
                                                  C:\Users\TeamUiS\AppData\Local\Temp\VMBuilds\Circulation\arduino_due_x_dbg\Release/core.a(USBCore.cpp.o)
UDD_FifoByteCount                                 C:\Users\TeamUiS\AppData\Local\arduino15\packages\arduino\hardware\sam\1.6.11\variants\arduino_due_x/libsam_sam3x8e_gcc_rel.a(uotghs_device.o)
                                                  C:\Users\TeamUiS\AppData\Local\Temp\VMBuilds\Circulation\arduino_due_x_dbg\Release/core.a(USBCore.cpp.o)
UDD_GetFrameNumber                                C:\Users\TeamUiS\AppData\Local\arduino15\packages\arduino\hardware\sam\1.6.11\variants\arduino_due_x/libsam_sam3x8e_gcc_rel.a(uotghs_device.o)
                                                  C:\Users\TeamUiS\AppData\Local\Temp\VMBuilds\Circulation\arduino_due_x_dbg\Release/core.a(USBCore.cpp.o)
UDD_Init                                          C:\Users\TeamUiS\AppData\Local\arduino15\packages\arduino\hardware\sam\1.6.11\variants\arduino_due_x/libsam_sam3x8e_gcc_rel.a(uotghs_device.o)
                                                  C:\Users\TeamUiS\AppData\Local\Temp\VMBuilds\Circulation\arduino_due_x_dbg\Release/core.a(USBCore.cpp.o)
UDD_InitEP                                        C:\Users\TeamUiS\AppData\Local\arduino15\packages\arduino\hardware\sam\1.6.11\variants\arduino_due_x/libsam_sam3x8e_gcc_rel.a(uotghs_device.o)
                                                  C:\Users\TeamUiS\AppData\Local\Temp\VMBuilds\Circulation\arduino_due_x_dbg\Release/core.a(USBCore.cpp.o)
UDD_InitEndpoints                                 C:\Users\TeamUiS\AppData\Local\arduino15\packages\arduino\hardware\sam\1.6.11\variants\arduino_due_x/libsam_sam3x8e_gcc_rel.a(uotghs_device.o)
                                                  C:\Users\TeamUiS\AppData\Local\Temp\VMBuilds\Circulation\arduino_due_x_dbg\Release/core.a(USBCore.cpp.o)
UDD_ReadWriteAllowed                              C:\Users\TeamUiS\AppData\Local\arduino15\packages\arduino\hardware\sam\1.6.11\variants\arduino_due_x/libsam_sam3x8e_gcc_rel.a(uotghs_device.o)
UDD_ReceivedSetupInt                              C:\Users\TeamUiS\AppData\Local\arduino15\packages\arduino\hardware\sam\1.6.11\variants\arduino_due_x/libsam_sam3x8e_gcc_rel.a(uotghs_device.o)
                                                  C:\Users\TeamUiS\AppData\Local\Temp\VMBuilds\Circulation\arduino_due_x_dbg\Release/core.a(USBCore.cpp.o)
UDD_Recv                                          C:\Users\TeamUiS\AppData\Local\arduino15\packages\arduino\hardware\sam\1.6.11\variants\arduino_due_x/libsam_sam3x8e_gcc_rel.a(uotghs_device.o)
                                                  C:\Users\TeamUiS\AppData\Local\Temp\VMBuilds\Circulation\arduino_due_x_dbg\Release/core.a(USBCore.cpp.o)
UDD_Recv8                                         C:\Users\TeamUiS\AppData\Local\arduino15\packages\arduino\hardware\sam\1.6.11\variants\arduino_due_x/libsam_sam3x8e_gcc_rel.a(uotghs_device.o)
                                                  C:\Users\TeamUiS\AppData\Local\Temp\VMBuilds\Circulation\arduino_due_x_dbg\Release/core.a(USBCore.cpp.o)
UDD_ReleaseRX                                     C:\Users\TeamUiS\AppData\Local\arduino15\packages\arduino\hardware\sam\1.6.11\variants\arduino_due_x/libsam_sam3x8e_gcc_rel.a(uotghs_device.o)
                                                  C:\Users\TeamUiS\AppData\Local\Temp\VMBuilds\Circulation\arduino_due_x_dbg\Release/core.a(USBCore.cpp.o)
UDD_ReleaseTX                                     C:\Users\TeamUiS\AppData\Local\arduino15\packages\arduino\hardware\sam\1.6.11\variants\arduino_due_x/libsam_sam3x8e_gcc_rel.a(uotghs_device.o)
                                                  C:\Users\TeamUiS\AppData\Local\Temp\VMBuilds\Circulation\arduino_due_x_dbg\Release/core.a(USBCore.cpp.o)
UDD_Send                                          C:\Users\TeamUiS\AppData\Local\arduino15\packages\arduino\hardware\sam\1.6.11\variants\arduino_due_x/libsam_sam3x8e_gcc_rel.a(uotghs_device.o)
                                                  C:\Users\TeamUiS\AppData\Local\Temp\VMBuilds\Circulation\arduino_due_x_dbg\Release/core.a(USBCore.cpp.o)
UDD_Send8                                         C:\Users\TeamUiS\AppData\Local\arduino15\packages\arduino\hardware\sam\1.6.11\variants\arduino_due_x/libsam_sam3x8e_gcc_rel.a(uotghs_device.o)
                                                  C:\Users\TeamUiS\AppData\Local\Temp\VMBuilds\Circulation\arduino_due_x_dbg\Release/core.a(USBCore.cpp.o)
UDD_SetAddress                                    C:\Users\TeamUiS\AppData\Local\arduino15\packages\arduino\hardware\sam\1.6.11\variants\arduino_due_x/libsam_sam3x8e_gcc_rel.a(uotghs_device.o)
                                                  C:\Users\TeamUiS\AppData\Local\Temp\VMBuilds\Circulation\arduino_due_x_dbg\Release/core.a(USBCore.cpp.o)
UDD_SetStack                                      C:\Users\TeamUiS\AppData\Local\arduino15\packages\arduino\hardware\sam\1.6.11\variants\arduino_due_x/libsam_sam3x8e_gcc_rel.a(uotghs_device.o)
                                                  C:\Users\TeamUiS\AppData\Local\Temp\VMBuilds\Circulation\arduino_due_x_dbg\Release/core.a(USBCore.cpp.o)
UDD_Stall                                         C:\Users\TeamUiS\AppData\Local\arduino15\packages\arduino\hardware\sam\1.6.11\variants\arduino_due_x/libsam_sam3x8e_gcc_rel.a(uotghs_device.o)
                                                  C:\Users\TeamUiS\AppData\Local\Temp\VMBuilds\Circulation\arduino_due_x_dbg\Release/core.a(USBCore.cpp.o)
UDD_WaitForINOrOUT                                C:\Users\TeamUiS\AppData\Local\arduino15\packages\arduino\hardware\sam\1.6.11\variants\arduino_due_x/libsam_sam3x8e_gcc_rel.a(uotghs_device.o)
UDD_WaitIN                                        C:\Users\TeamUiS\AppData\Local\arduino15\packages\arduino\hardware\sam\1.6.11\variants\arduino_due_x/libsam_sam3x8e_gcc_rel.a(uotghs_device.o)
                                                  C:\Users\TeamUiS\AppData\Local\Temp\VMBuilds\Circulation\arduino_due_x_dbg\Release/core.a(USBCore.cpp.o)
UDD_WaitOUT                                       C:\Users\TeamUiS\AppData\Local\arduino15\packages\arduino\hardware\sam\1.6.11\variants\arduino_due_x/libsam_sam3x8e_gcc_rel.a(uotghs_device.o)
                                                  C:\Users\TeamUiS\AppData\Local\Temp\VMBuilds\Circulation\arduino_due_x_dbg\Release/core.a(USBCore.cpp.o)
UOTGHS_Handler                                    C:\Users\TeamUiS\AppData\Local\arduino15\packages\arduino\hardware\sam\1.6.11\variants\arduino_due_x/libsam_sam3x8e_gcc_rel.a(uotghs.o)
                                                  C:\Users\TeamUiS\AppData\Local\arduino15\packages\arduino\hardware\sam\1.6.11\variants\arduino_due_x/libsam_sam3x8e_gcc_rel.a(startup_sam3xa.o)
USART0_Handler                                    C:\Users\TeamUiS\AppData\Local\Temp\VMBuilds\Circulation\arduino_due_x_dbg\Release\variant\variant.cpp.o
                                                  C:\Users\TeamUiS\AppData\Local\arduino15\packages\arduino\hardware\sam\1.6.11\variants\arduino_due_x/libsam_sam3x8e_gcc_rel.a(startup_sam3xa.o)
USART1_Handler                                    C:\Users\TeamUiS\AppData\Local\Temp\VMBuilds\Circulation\arduino_due_x_dbg\Release\variant\variant.cpp.o
                                                  C:\Users\TeamUiS\AppData\Local\arduino15\packages\arduino\hardware\sam\1.6.11\variants\arduino_due_x/libsam_sam3x8e_gcc_rel.a(startup_sam3xa.o)
USART2_Handler                                    C:\Users\TeamUiS\AppData\Local\Temp\VMBuilds\Circulation\arduino_due_x_dbg\Release/core.a(cortex_handlers.c.o)
                                                  C:\Users\TeamUiS\AppData\Local\arduino15\packages\arduino\hardware\sam\1.6.11\variants\arduino_due_x/libsam_sam3x8e_gcc_rel.a(startup_sam3xa.o)
USART3_Handler                                    C:\Users\TeamUiS\AppData\Local\Temp\VMBuilds\Circulation\arduino_due_x_dbg\Release\variant\variant.cpp.o
                                                  C:\Users\TeamUiS\AppData\Local\arduino15\packages\arduino\hardware\sam\1.6.11\variants\arduino_due_x/libsam_sam3x8e_gcc_rel.a(startup_sam3xa.o)
USARTClass::USARTClass(Usart*, IRQn, unsigned long, RingBuffer*, RingBuffer*) C:\Users\TeamUiS\AppData\Local\Temp\VMBuilds\Circulation\arduino_due_x_dbg\Release/core.a(USARTClass.cpp.o)
                                                  C:\Users\TeamUiS\AppData\Local\Temp\VMBuilds\Circulation\arduino_due_x_dbg\Release\variant\variant.cpp.o
USARTClass::USARTClass(Usart*, IRQn, unsigned long, RingBuffer*, RingBuffer*) C:\Users\TeamUiS\AppData\Local\Temp\VMBuilds\Circulation\arduino_due_x_dbg\Release/core.a(USARTClass.cpp.o)
USARTClass::begin(unsigned long)                  C:\Users\TeamUiS\AppData\Local\Temp\VMBuilds\Circulation\arduino_due_x_dbg\Release/core.a(USARTClass.cpp.o)
USARTClass::begin(unsigned long, UARTClass::UARTModes) C:\Users\TeamUiS\AppData\Local\Temp\VMBuilds\Circulation\arduino_due_x_dbg\Release/core.a(USARTClass.cpp.o)
USARTClass::begin(unsigned long, USARTClass::USARTModes) C:\Users\TeamUiS\AppData\Local\Temp\VMBuilds\Circulation\arduino_due_x_dbg\Release/core.a(USARTClass.cpp.o)
USBD_Available(unsigned long)                     C:\Users\TeamUiS\AppData\Local\Temp\VMBuilds\Circulation\arduino_due_x_dbg\Release/core.a(USBCore.cpp.o)
                                                  C:\Users\TeamUiS\AppData\Local\Temp\VMBuilds\Circulation\arduino_due_x_dbg\Release/core.a(CDC.cpp.o)
USBD_ClassInterfaceRequest(USBSetup&)             C:\Users\TeamUiS\AppData\Local\Temp\VMBuilds\Circulation\arduino_due_x_dbg\Release/core.a(USBCore.cpp.o)
USBD_Connected()                                  C:\Users\TeamUiS\AppData\Local\Temp\VMBuilds\Circulation\arduino_due_x_dbg\Release/core.a(USBCore.cpp.o)
USBD_Flush(unsigned long)                         C:\Users\TeamUiS\AppData\Local\Temp\VMBuilds\Circulation\arduino_due_x_dbg\Release/core.a(USBCore.cpp.o)
                                                  C:\Users\TeamUiS\AppData\Local\Temp\VMBuilds\Circulation\arduino_due_x_dbg\Release/core.a(CDC.cpp.o)
USBD_InitControl(int)                             C:\Users\TeamUiS\AppData\Local\Temp\VMBuilds\Circulation\arduino_due_x_dbg\Release/core.a(USBCore.cpp.o)
USBD_Recv(unsigned long)                          C:\Users\TeamUiS\AppData\Local\Temp\VMBuilds\Circulation\arduino_due_x_dbg\Release/core.a(USBCore.cpp.o)
                                                  C:\Users\TeamUiS\AppData\Local\Temp\VMBuilds\Circulation\arduino_due_x_dbg\Release/core.a(CDC.cpp.o)
USBD_Recv(unsigned long, void*, unsigned long)    C:\Users\TeamUiS\AppData\Local\Temp\VMBuilds\Circulation\arduino_due_x_dbg\Release/core.a(USBCore.cpp.o)
USBD_RecvControl(void*, unsigned long)            C:\Users\TeamUiS\AppData\Local\Temp\VMBuilds\Circulation\arduino_due_x_dbg\Release/core.a(USBCore.cpp.o)
                                                  C:\Users\TeamUiS\AppData\Local\Temp\VMBuilds\Circulation\arduino_due_x_dbg\Release/core.a(CDC.cpp.o)
USBD_Send(unsigned long, void const*, unsigned long) C:\Users\TeamUiS\AppData\Local\Temp\VMBuilds\Circulation\arduino_due_x_dbg\Release/core.a(USBCore.cpp.o)
                                                  C:\Users\TeamUiS\AppData\Local\Temp\VMBuilds\Circulation\arduino_due_x_dbg\Release/core.a(CDC.cpp.o)
USBD_SendControl(unsigned char, void const*, unsigned long) C:\Users\TeamUiS\AppData\Local\Temp\VMBuilds\Circulation\arduino_due_x_dbg\Release/core.a(USBCore.cpp.o)
                                                  C:\Users\TeamUiS\AppData\Local\Temp\VMBuilds\Circulation\arduino_due_x_dbg\Release/core.a(CDC.cpp.o)
USBD_SendInterfaces()                             C:\Users\TeamUiS\AppData\Local\Temp\VMBuilds\Circulation\arduino_due_x_dbg\Release/core.a(USBCore.cpp.o)
USBD_SendOtherInterfaces()                        C:\Users\TeamUiS\AppData\Local\Temp\VMBuilds\Circulation\arduino_due_x_dbg\Release/core.a(USBCore.cpp.o)
USBDevice                                         C:\Users\TeamUiS\AppData\Local\Temp\VMBuilds\Circulation\arduino_due_x_dbg\Release/core.a(USBCore.cpp.o)
                                                  C:\Users\TeamUiS\AppData\Local\Temp\VMBuilds\Circulation\arduino_due_x_dbg\Release/core.a(main.cpp.o)
USBDevice_::USBDevice_()                          C:\Users\TeamUiS\AppData\Local\Temp\VMBuilds\Circulation\arduino_due_x_dbg\Release/core.a(USBCore.cpp.o)
USBDevice_::USBDevice_()                          C:\Users\TeamUiS\AppData\Local\Temp\VMBuilds\Circulation\arduino_due_x_dbg\Release/core.a(USBCore.cpp.o)
USBDevice_::attach()                              C:\Users\TeamUiS\AppData\Local\Temp\VMBuilds\Circulation\arduino_due_x_dbg\Release/core.a(USBCore.cpp.o)
                                                  C:\Users\TeamUiS\AppData\Local\Temp\VMBuilds\Circulation\arduino_due_x_dbg\Release/core.a(main.cpp.o)
USBDevice_::configured()                          C:\Users\TeamUiS\AppData\Local\Temp\VMBuilds\Circulation\arduino_due_x_dbg\Release/core.a(USBCore.cpp.o)
USBDevice_::detach()                              C:\Users\TeamUiS\AppData\Local\Temp\VMBuilds\Circulation\arduino_due_x_dbg\Release/core.a(USBCore.cpp.o)
USBDevice_::poll()                                C:\Users\TeamUiS\AppData\Local\Temp\VMBuilds\Circulation\arduino_due_x_dbg\Release/core.a(USBCore.cpp.o)
USB_DeviceDescriptor                              C:\Users\TeamUiS\AppData\Local\Temp\VMBuilds\Circulation\arduino_due_x_dbg\Release/core.a(USBCore.cpp.o)
USB_DeviceDescriptorA                             C:\Users\TeamUiS\AppData\Local\Temp\VMBuilds\Circulation\arduino_due_x_dbg\Release/core.a(USBCore.cpp.o)
UsageFault_Handler                                C:\Users\TeamUiS\AppData\Local\Temp\VMBuilds\Circulation\arduino_due_x_dbg\Release/core.a(cortex_handlers.c.o)
                                                  C:\Users\TeamUiS\AppData\Local\arduino15\packages\arduino\hardware\sam\1.6.11\variants\arduino_due_x/libsam_sam3x8e_gcc_rel.a(startup_sam3xa.o)
WDT_Disable                                       C:\Users\TeamUiS\AppData\Local\arduino15\packages\arduino\hardware\sam\1.6.11\variants\arduino_due_x/libsam_sam3x8e_gcc_rel.a(wdt.o)
                                                  C:\Users\TeamUiS\AppData\Local\Temp\VMBuilds\Circulation\arduino_due_x_dbg\Release/core.a(watchdog.cpp.o)
WDT_Enable                                        C:\Users\TeamUiS\AppData\Local\arduino15\packages\arduino\hardware\sam\1.6.11\variants\arduino_due_x/libsam_sam3x8e_gcc_rel.a(wdt.o)
                                                  C:\Users\TeamUiS\AppData\Local\Temp\VMBuilds\Circulation\arduino_due_x_dbg\Release/core.a(watchdog.cpp.o)
WDT_GetPeriod                                     C:\Users\TeamUiS\AppData\Local\arduino15\packages\arduino\hardware\sam\1.6.11\variants\arduino_due_x/libsam_sam3x8e_gcc_rel.a(wdt.o)
WDT_GetStatus                                     C:\Users\TeamUiS\AppData\Local\arduino15\packages\arduino\hardware\sam\1.6.11\variants\arduino_due_x/libsam_sam3x8e_gcc_rel.a(wdt.o)
WDT_Handler                                       C:\Users\TeamUiS\AppData\Local\Temp\VMBuilds\Circulation\arduino_due_x_dbg\Release/core.a(cortex_handlers.c.o)
                                                  C:\Users\TeamUiS\AppData\Local\arduino15\packages\arduino\hardware\sam\1.6.11\variants\arduino_due_x/libsam_sam3x8e_gcc_rel.a(startup_sam3xa.o)
WDT_Restart                                       C:\Users\TeamUiS\AppData\Local\arduino15\packages\arduino\hardware\sam\1.6.11\variants\arduino_due_x/libsam_sam3x8e_gcc_rel.a(wdt.o)
                                                  C:\Users\TeamUiS\AppData\Local\Temp\VMBuilds\Circulation\arduino_due_x_dbg\Release/core.a(watchdog.cpp.o)
Wait                                              C:\Users\TeamUiS\AppData\Local\arduino15\packages\arduino\hardware\sam\1.6.11\variants\arduino_due_x/libsam_sam3x8e_gcc_rel.a(timetick.o)
_Jv_RegisterClasses                               c:/users/teamuis/appdata/local/arduino15/packages/arduino/tools/arm-none-eabi-gcc/4.8.3-2014q1/bin/../lib/gcc/arm-none-eabi/4.8.3/armv7-m/crtbegin.o
_PathLocale                                       c:/users/teamuis/appdata/local/arduino15/packages/arduino/tools/arm-none-eabi-gcc/4.8.3-2014q1/bin/../lib/gcc/arm-none-eabi/4.8.3/../../../../arm-none-eabi/lib/armv7-m\libg.a(lib_a-locale.o)
__adddf3                                          c:/users/teamuis/appdata/local/arduino15/packages/arduino/tools/arm-none-eabi-gcc/4.8.3-2014q1/bin/../lib/gcc/arm-none-eabi/4.8.3/armv7-m\libgcc.a(_arm_addsubdf3.o)
__addsf3                                          c:/users/teamuis/appdata/local/arduino15/packages/arduino/tools/arm-none-eabi-gcc/4.8.3-2014q1/bin/../lib/gcc/arm-none-eabi/4.8.3/armv7-m\libgcc.a(_arm_addsubsf3.o)
__aeabi_cdcmpeq                                   c:/users/teamuis/appdata/local/arduino15/packages/arduino/tools/arm-none-eabi-gcc/4.8.3-2014q1/bin/../lib/gcc/arm-none-eabi/4.8.3/armv7-m\libgcc.a(_arm_cmpdf2.o)
__aeabi_cdcmple                                   c:/users/teamuis/appdata/local/arduino15/packages/arduino/tools/arm-none-eabi-gcc/4.8.3-2014q1/bin/../lib/gcc/arm-none-eabi/4.8.3/armv7-m\libgcc.a(_arm_cmpdf2.o)
__aeabi_cdrcmple                                  c:/users/teamuis/appdata/local/arduino15/packages/arduino/tools/arm-none-eabi-gcc/4.8.3-2014q1/bin/../lib/gcc/arm-none-eabi/4.8.3/armv7-m\libgcc.a(_arm_cmpdf2.o)
__aeabi_cfcmpeq                                   c:/users/teamuis/appdata/local/arduino15/packages/arduino/tools/arm-none-eabi-gcc/4.8.3-2014q1/bin/../lib/gcc/arm-none-eabi/4.8.3/armv7-m\libgcc.a(_arm_cmpsf2.o)
__aeabi_cfcmple                                   c:/users/teamuis/appdata/local/arduino15/packages/arduino/tools/arm-none-eabi-gcc/4.8.3-2014q1/bin/../lib/gcc/arm-none-eabi/4.8.3/armv7-m\libgcc.a(_arm_cmpsf2.o)
__aeabi_cfrcmple                                  c:/users/teamuis/appdata/local/arduino15/packages/arduino/tools/arm-none-eabi-gcc/4.8.3-2014q1/bin/../lib/gcc/arm-none-eabi/4.8.3/armv7-m\libgcc.a(_arm_cmpsf2.o)
__aeabi_d2f                                       c:/users/teamuis/appdata/local/arduino15/packages/arduino/tools/arm-none-eabi-gcc/4.8.3-2014q1/bin/../lib/gcc/arm-none-eabi/4.8.3/armv7-m\libgcc.a(_arm_truncdfsf2.o)
                                                  C:\Users\TeamUiS\AppData\Local\Temp\VMBuilds\Circulation\arduino_due_x_dbg\Release\Circulation.cpp.o
__aeabi_d2uiz                                     c:/users/teamuis/appdata/local/arduino15/packages/arduino/tools/arm-none-eabi-gcc/4.8.3-2014q1/bin/../lib/gcc/arm-none-eabi/4.8.3/armv7-m\libgcc.a(_arm_fixunsdfsi.o)
                                                  C:\Users\TeamUiS\AppData\Local\Temp\VMBuilds\Circulation\arduino_due_x_dbg\Release/core.a(Print.cpp.o)
__aeabi_dadd                                      c:/users/teamuis/appdata/local/arduino15/packages/arduino/tools/arm-none-eabi-gcc/4.8.3-2014q1/bin/../lib/gcc/arm-none-eabi/4.8.3/armv7-m\libgcc.a(_arm_addsubdf3.o)
                                                  C:\Users\TeamUiS\AppData\Local\Temp\VMBuilds\Circulation\arduino_due_x_dbg\Release/core.a(Print.cpp.o)
                                                  C:\Users\TeamUiS\AppData\Local\Temp\VMBuilds\Circulation\arduino_due_x_dbg\Release\Circulation.cpp.o
__aeabi_dcmpeq                                    c:/users/teamuis/appdata/local/arduino15/packages/arduino/tools/arm-none-eabi-gcc/4.8.3-2014q1/bin/../lib/gcc/arm-none-eabi/4.8.3/armv7-m\libgcc.a(_arm_cmpdf2.o)
__aeabi_dcmpge                                    c:/users/teamuis/appdata/local/arduino15/packages/arduino/tools/arm-none-eabi-gcc/4.8.3-2014q1/bin/../lib/gcc/arm-none-eabi/4.8.3/armv7-m\libgcc.a(_arm_cmpdf2.o)
__aeabi_dcmpgt                                    c:/users/teamuis/appdata/local/arduino15/packages/arduino/tools/arm-none-eabi-gcc/4.8.3-2014q1/bin/../lib/gcc/arm-none-eabi/4.8.3/armv7-m\libgcc.a(_arm_cmpdf2.o)
                                                  C:\Users\TeamUiS\AppData\Local\Temp\VMBuilds\Circulation\arduino_due_x_dbg\Release/core.a(Print.cpp.o)
__aeabi_dcmple                                    c:/users/teamuis/appdata/local/arduino15/packages/arduino/tools/arm-none-eabi-gcc/4.8.3-2014q1/bin/../lib/gcc/arm-none-eabi/4.8.3/armv7-m\libgcc.a(_arm_cmpdf2.o)
__aeabi_dcmplt                                    c:/users/teamuis/appdata/local/arduino15/packages/arduino/tools/arm-none-eabi-gcc/4.8.3-2014q1/bin/../lib/gcc/arm-none-eabi/4.8.3/armv7-m\libgcc.a(_arm_cmpdf2.o)
                                                  C:\Users\TeamUiS\AppData\Local\Temp\VMBuilds\Circulation\arduino_due_x_dbg\Release/core.a(Print.cpp.o)
__aeabi_ddiv                                      c:/users/teamuis/appdata/local/arduino15/packages/arduino/tools/arm-none-eabi-gcc/4.8.3-2014q1/bin/../lib/gcc/arm-none-eabi/4.8.3/armv7-m\libgcc.a(_arm_muldivdf3.o)
                                                  C:\Users\TeamUiS\AppData\Local\Temp\VMBuilds\Circulation\arduino_due_x_dbg\Release/core.a(Print.cpp.o)
                                                  C:\Users\TeamUiS\AppData\Local\Temp\VMBuilds\Circulation\arduino_due_x_dbg\Release\Circulation.cpp.o
__aeabi_dmul                                      c:/users/teamuis/appdata/local/arduino15/packages/arduino/tools/arm-none-eabi-gcc/4.8.3-2014q1/bin/../lib/gcc/arm-none-eabi/4.8.3/armv7-m\libgcc.a(_arm_muldivdf3.o)
                                                  C:\Users\TeamUiS\AppData\Local\Temp\VMBuilds\Circulation\arduino_due_x_dbg\Release/core.a(Print.cpp.o)
                                                  C:\Users\TeamUiS\AppData\Local\Temp\VMBuilds\Circulation\arduino_due_x_dbg\Release\Circulation.cpp.o
__aeabi_drsub                                     c:/users/teamuis/appdata/local/arduino15/packages/arduino/tools/arm-none-eabi-gcc/4.8.3-2014q1/bin/../lib/gcc/arm-none-eabi/4.8.3/armv7-m\libgcc.a(_arm_addsubdf3.o)
__aeabi_dsub                                      c:/users/teamuis/appdata/local/arduino15/packages/arduino/tools/arm-none-eabi-gcc/4.8.3-2014q1/bin/../lib/gcc/arm-none-eabi/4.8.3/armv7-m\libgcc.a(_arm_addsubdf3.o)
                                                  C:\Users\TeamUiS\AppData\Local\Temp\VMBuilds\Circulation\arduino_due_x_dbg\Release/core.a(Print.cpp.o)
                                                  C:\Users\TeamUiS\AppData\Local\Temp\VMBuilds\Circulation\arduino_due_x_dbg\Release\Circulation.cpp.o
__aeabi_f2d                                       c:/users/teamuis/appdata/local/arduino15/packages/arduino/tools/arm-none-eabi-gcc/4.8.3-2014q1/bin/../lib/gcc/arm-none-eabi/4.8.3/armv7-m\libgcc.a(_arm_addsubdf3.o)
                                                  C:\Users\TeamUiS\AppData\Local\Temp\VMBuilds\Circulation\arduino_due_x_dbg\Release\Circulation.cpp.o
__aeabi_fadd                                      c:/users/teamuis/appdata/local/arduino15/packages/arduino/tools/arm-none-eabi-gcc/4.8.3-2014q1/bin/../lib/gcc/arm-none-eabi/4.8.3/armv7-m\libgcc.a(_arm_addsubsf3.o)
                                                  C:\Users\TeamUiS\AppData\Local\Temp\VMBuilds\Circulation\arduino_due_x_dbg\Release\Circulation.cpp.o
__aeabi_fcmpeq                                    c:/users/teamuis/appdata/local/arduino15/packages/arduino/tools/arm-none-eabi-gcc/4.8.3-2014q1/bin/../lib/gcc/arm-none-eabi/4.8.3/armv7-m\libgcc.a(_arm_cmpsf2.o)
__aeabi_fcmpge                                    c:/users/teamuis/appdata/local/arduino15/packages/arduino/tools/arm-none-eabi-gcc/4.8.3-2014q1/bin/../lib/gcc/arm-none-eabi/4.8.3/armv7-m\libgcc.a(_arm_cmpsf2.o)
__aeabi_fcmpgt                                    c:/users/teamuis/appdata/local/arduino15/packages/arduino/tools/arm-none-eabi-gcc/4.8.3-2014q1/bin/../lib/gcc/arm-none-eabi/4.8.3/armv7-m\libgcc.a(_arm_cmpsf2.o)
                                                  C:\Users\TeamUiS\AppData\Local\Temp\VMBuilds\Circulation\arduino_due_x_dbg\Release\Circulation.cpp.o
__aeabi_fcmple                                    c:/users/teamuis/appdata/local/arduino15/packages/arduino/tools/arm-none-eabi-gcc/4.8.3-2014q1/bin/../lib/gcc/arm-none-eabi/4.8.3/armv7-m\libgcc.a(_arm_cmpsf2.o)
__aeabi_fcmplt                                    c:/users/teamuis/appdata/local/arduino15/packages/arduino/tools/arm-none-eabi-gcc/4.8.3-2014q1/bin/../lib/gcc/arm-none-eabi/4.8.3/armv7-m\libgcc.a(_arm_cmpsf2.o)
                                                  C:\Users\TeamUiS\AppData\Local\Temp\VMBuilds\Circulation\arduino_due_x_dbg\Release\Circulation.cpp.o
__aeabi_fdiv                                      c:/users/teamuis/appdata/local/arduino15/packages/arduino/tools/arm-none-eabi-gcc/4.8.3-2014q1/bin/../lib/gcc/arm-none-eabi/4.8.3/armv7-m\libgcc.a(_arm_muldivsf3.o)
                                                  C:\Users\TeamUiS\AppData\Local\Temp\VMBuilds\Circulation\arduino_due_x_dbg\Release\Circulation.cpp.o
__aeabi_fmul                                      c:/users/teamuis/appdata/local/arduino15/packages/arduino/tools/arm-none-eabi-gcc/4.8.3-2014q1/bin/../lib/gcc/arm-none-eabi/4.8.3/armv7-m\libgcc.a(_arm_muldivsf3.o)
                                                  C:\Users\TeamUiS\AppData\Local\Temp\VMBuilds\Circulation\arduino_due_x_dbg\Release\Circulation.cpp.o
__aeabi_frsub                                     c:/users/teamuis/appdata/local/arduino15/packages/arduino/tools/arm-none-eabi-gcc/4.8.3-2014q1/bin/../lib/gcc/arm-none-eabi/4.8.3/armv7-m\libgcc.a(_arm_addsubsf3.o)
__aeabi_fsub                                      c:/users/teamuis/appdata/local/arduino15/packages/arduino/tools/arm-none-eabi-gcc/4.8.3-2014q1/bin/../lib/gcc/arm-none-eabi/4.8.3/armv7-m\libgcc.a(_arm_addsubsf3.o)
                                                  C:\Users\TeamUiS\AppData\Local\Temp\VMBuilds\Circulation\arduino_due_x_dbg\Release\Circulation.cpp.o
__aeabi_i2d                                       c:/users/teamuis/appdata/local/arduino15/packages/arduino/tools/arm-none-eabi-gcc/4.8.3-2014q1/bin/../lib/gcc/arm-none-eabi/4.8.3/armv7-m\libgcc.a(_arm_addsubdf3.o)
                                                  C:\Users\TeamUiS\AppData\Local\Temp\VMBuilds\Circulation\arduino_due_x_dbg\Release\Circulation.cpp.o
__aeabi_i2f                                       c:/users/teamuis/appdata/local/arduino15/packages/arduino/tools/arm-none-eabi-gcc/4.8.3-2014q1/bin/../lib/gcc/arm-none-eabi/4.8.3/armv7-m\libgcc.a(_arm_addsubsf3.o)
                                                  C:\Users\TeamUiS\AppData\Local\Temp\VMBuilds\Circulation\arduino_due_x_dbg\Release\Circulation.cpp.o
__aeabi_idiv0                                     c:/users/teamuis/appdata/local/arduino15/packages/arduino/tools/arm-none-eabi-gcc/4.8.3-2014q1/bin/../lib/gcc/arm-none-eabi/4.8.3/armv7-m\libgcc.a(_dvmd_tls.o)
__aeabi_l2d                                       c:/users/teamuis/appdata/local/arduino15/packages/arduino/tools/arm-none-eabi-gcc/4.8.3-2014q1/bin/../lib/gcc/arm-none-eabi/4.8.3/armv7-m\libgcc.a(_arm_addsubdf3.o)
__aeabi_l2f                                       c:/users/teamuis/appdata/local/arduino15/packages/arduino/tools/arm-none-eabi-gcc/4.8.3-2014q1/bin/../lib/gcc/arm-none-eabi/4.8.3/armv7-m\libgcc.a(_arm_addsubsf3.o)
__aeabi_ldiv0                                     c:/users/teamuis/appdata/local/arduino15/packages/arduino/tools/arm-none-eabi-gcc/4.8.3-2014q1/bin/../lib/gcc/arm-none-eabi/4.8.3/armv7-m\libgcc.a(_dvmd_tls.o)
                                                  c:/users/teamuis/appdata/local/arduino15/packages/arduino/tools/arm-none-eabi-gcc/4.8.3-2014q1/bin/../lib/gcc/arm-none-eabi/4.8.3/armv7-m\libgcc.a(_aeabi_uldivmod.o)
__aeabi_ui2d                                      c:/users/teamuis/appdata/local/arduino15/packages/arduino/tools/arm-none-eabi-gcc/4.8.3-2014q1/bin/../lib/gcc/arm-none-eabi/4.8.3/armv7-m\libgcc.a(_arm_addsubdf3.o)
                                                  C:\Users\TeamUiS\AppData\Local\Temp\VMBuilds\Circulation\arduino_due_x_dbg\Release/core.a(Print.cpp.o)
__aeabi_ui2f                                      c:/users/teamuis/appdata/local/arduino15/packages/arduino/tools/arm-none-eabi-gcc/4.8.3-2014q1/bin/../lib/gcc/arm-none-eabi/4.8.3/armv7-m\libgcc.a(_arm_addsubsf3.o)
                                                  C:\Users\TeamUiS\AppData\Local\Temp\VMBuilds\Circulation\arduino_due_x_dbg\Release\Circulation.cpp.o
__aeabi_ul2d                                      c:/users/teamuis/appdata/local/arduino15/packages/arduino/tools/arm-none-eabi-gcc/4.8.3-2014q1/bin/../lib/gcc/arm-none-eabi/4.8.3/armv7-m\libgcc.a(_arm_addsubdf3.o)
__aeabi_ul2f                                      c:/users/teamuis/appdata/local/arduino15/packages/arduino/tools/arm-none-eabi-gcc/4.8.3-2014q1/bin/../lib/gcc/arm-none-eabi/4.8.3/armv7-m\libgcc.a(_arm_addsubsf3.o)
__aeabi_uldivmod                                  c:/users/teamuis/appdata/local/arduino15/packages/arduino/tools/arm-none-eabi-gcc/4.8.3-2014q1/bin/../lib/gcc/arm-none-eabi/4.8.3/armv7-m\libgcc.a(_aeabi_uldivmod.o)
                                                  c:/users/teamuis/appdata/local/arduino15/packages/arduino/tools/arm-none-eabi-gcc/4.8.3-2014q1/bin/../lib/gcc/arm-none-eabi/4.8.3/../../../../arm-none-eabi/lib/armv7-m\libg.a(lib_a-vfiprintf.o)
__ascii_wctomb                                    c:/users/teamuis/appdata/local/arduino15/packages/arduino/tools/arm-none-eabi-gcc/4.8.3-2014q1/bin/../lib/gcc/arm-none-eabi/4.8.3/../../../../arm-none-eabi/lib/armv7-m\libg.a(lib_a-wctomb_r.o)
__assert                                          c:/users/teamuis/appdata/local/arduino15/packages/arduino/tools/arm-none-eabi-gcc/4.8.3-2014q1/bin/../lib/gcc/arm-none-eabi/4.8.3/../../../../arm-none-eabi/lib/armv7-m\libg.a(lib_a-assert.o)
__assert_func                                     c:/users/teamuis/appdata/local/arduino15/packages/arduino/tools/arm-none-eabi-gcc/4.8.3-2014q1/bin/../lib/gcc/arm-none-eabi/4.8.3/../../../../arm-none-eabi/lib/armv7-m\libg.a(lib_a-assert.o)
                                                  C:\Users\TeamUiS\AppData\Local\arduino15\packages\arduino\hardware\sam\1.6.11\variants\arduino_due_x/libsam_sam3x8e_gcc_rel.a(tc.o)
                                                  C:\Users\TeamUiS\AppData\Local\arduino15\packages\arduino\hardware\sam\1.6.11\variants\arduino_due_x/libsam_sam3x8e_gcc_rel.a(pwmc.o)
__bss_end__                                       c:/users/teamuis/appdata/local/arduino15/packages/arduino/tools/arm-none-eabi-gcc/4.8.3-2014q1/bin/../lib/gcc/arm-none-eabi/4.8.3/../../../../arm-none-eabi/lib/armv7-m/crt0.o
__bss_start__                                     c:/users/teamuis/appdata/local/arduino15/packages/arduino/tools/arm-none-eabi-gcc/4.8.3-2014q1/bin/../lib/gcc/arm-none-eabi/4.8.3/../../../../arm-none-eabi/lib/armv7-m/crt0.o
__call_exitprocs                                  c:/users/teamuis/appdata/local/arduino15/packages/arduino/tools/arm-none-eabi-gcc/4.8.3-2014q1/bin/../lib/gcc/arm-none-eabi/4.8.3/../../../../arm-none-eabi/lib/armv7-m\libg.a(lib_a-__call_atexit.o)
                                                  c:/users/teamuis/appdata/local/arduino15/packages/arduino/tools/arm-none-eabi-gcc/4.8.3-2014q1/bin/../lib/gcc/arm-none-eabi/4.8.3/../../../../arm-none-eabi/lib/armv7-m\libg.a(lib_a-exit.o)
__cmpdf2                                          c:/users/teamuis/appdata/local/arduino15/packages/arduino/tools/arm-none-eabi-gcc/4.8.3-2014q1/bin/../lib/gcc/arm-none-eabi/4.8.3/armv7-m\libgcc.a(_arm_cmpdf2.o)
__cmpsf2                                          c:/users/teamuis/appdata/local/arduino15/packages/arduino/tools/arm-none-eabi-gcc/4.8.3-2014q1/bin/../lib/gcc/arm-none-eabi/4.8.3/armv7-m\libgcc.a(_arm_cmpsf2.o)
__cxa_deleted_virtual                             C:\Users\TeamUiS\AppData\Local\Temp\VMBuilds\Circulation\arduino_due_x_dbg\Release/core.a(abi.cpp.o)
__cxa_pure_virtual                                C:\Users\TeamUiS\AppData\Local\Temp\VMBuilds\Circulation\arduino_due_x_dbg\Release/core.a(abi.cpp.o)
                                                  C:\Users\TeamUiS\AppData\Local\Temp\VMBuilds\Circulation\arduino_due_x_dbg\Release/core.a(UARTClass.cpp.o)
                                                  C:\Users\TeamUiS\AppData\Local\Temp\VMBuilds\Circulation\arduino_due_x_dbg\Release/core.a(Print.cpp.o)
__deregister_frame_info                           c:/users/teamuis/appdata/local/arduino15/packages/arduino/tools/arm-none-eabi-gcc/4.8.3-2014q1/bin/../lib/gcc/arm-none-eabi/4.8.3/armv7-m/crtbegin.o
__divdf3                                          c:/users/teamuis/appdata/local/arduino15/packages/arduino/tools/arm-none-eabi-gcc/4.8.3-2014q1/bin/../lib/gcc/arm-none-eabi/4.8.3/armv7-m\libgcc.a(_arm_muldivdf3.o)
__divdi3                                          c:/users/teamuis/appdata/local/arduino15/packages/arduino/tools/arm-none-eabi-gcc/4.8.3-2014q1/bin/../lib/gcc/arm-none-eabi/4.8.3/armv7-m\libgcc.a(_divdi3.o)
                                                  c:/users/teamuis/appdata/local/arduino15/packages/arduino/tools/arm-none-eabi-gcc/4.8.3-2014q1/bin/../lib/gcc/arm-none-eabi/4.8.3/armv7-m\libgcc.a(bpabi.o)
__divsf3                                          c:/users/teamuis/appdata/local/arduino15/packages/arduino/tools/arm-none-eabi-gcc/4.8.3-2014q1/bin/../lib/gcc/arm-none-eabi/4.8.3/armv7-m\libgcc.a(_arm_muldivsf3.o)
__dso_handle                                      c:/users/teamuis/appdata/local/arduino15/packages/arduino/tools/arm-none-eabi-gcc/4.8.3-2014q1/bin/../lib/gcc/arm-none-eabi/4.8.3/armv7-m/crtbegin.o
__eqdf2                                           c:/users/teamuis/appdata/local/arduino15/packages/arduino/tools/arm-none-eabi-gcc/4.8.3-2014q1/bin/../lib/gcc/arm-none-eabi/4.8.3/armv7-m\libgcc.a(_arm_cmpdf2.o)
__eqsf2                                           c:/users/teamuis/appdata/local/arduino15/packages/arduino/tools/arm-none-eabi-gcc/4.8.3-2014q1/bin/../lib/gcc/arm-none-eabi/4.8.3/armv7-m\libgcc.a(_arm_cmpsf2.o)
__extendsfdf2                                     c:/users/teamuis/appdata/local/arduino15/packages/arduino/tools/arm-none-eabi-gcc/4.8.3-2014q1/bin/../lib/gcc/arm-none-eabi/4.8.3/armv7-m\libgcc.a(_arm_addsubdf3.o)
__fini_array_end                                  c:/users/teamuis/appdata/local/arduino15/packages/arduino/tools/arm-none-eabi-gcc/4.8.3-2014q1/bin/../lib/gcc/arm-none-eabi/4.8.3/../../../../arm-none-eabi/lib/armv7-m\libg.a(lib_a-fini.o)
__fini_array_start                                c:/users/teamuis/appdata/local/arduino15/packages/arduino/tools/arm-none-eabi-gcc/4.8.3-2014q1/bin/../lib/gcc/arm-none-eabi/4.8.3/../../../../arm-none-eabi/lib/armv7-m\libg.a(lib_a-fini.o)
__fixunsdfsi                                      c:/users/teamuis/appdata/local/arduino15/packages/arduino/tools/arm-none-eabi-gcc/4.8.3-2014q1/bin/../lib/gcc/arm-none-eabi/4.8.3/armv7-m\libgcc.a(_arm_fixunsdfsi.o)
__floatdidf                                       c:/users/teamuis/appdata/local/arduino15/packages/arduino/tools/arm-none-eabi-gcc/4.8.3-2014q1/bin/../lib/gcc/arm-none-eabi/4.8.3/armv7-m\libgcc.a(_arm_addsubdf3.o)
__floatdisf                                       c:/users/teamuis/appdata/local/arduino15/packages/arduino/tools/arm-none-eabi-gcc/4.8.3-2014q1/bin/../lib/gcc/arm-none-eabi/4.8.3/armv7-m\libgcc.a(_arm_addsubsf3.o)
__floatsidf                                       c:/users/teamuis/appdata/local/arduino15/packages/arduino/tools/arm-none-eabi-gcc/4.8.3-2014q1/bin/../lib/gcc/arm-none-eabi/4.8.3/armv7-m\libgcc.a(_arm_addsubdf3.o)
__floatsisf                                       c:/users/teamuis/appdata/local/arduino15/packages/arduino/tools/arm-none-eabi-gcc/4.8.3-2014q1/bin/../lib/gcc/arm-none-eabi/4.8.3/armv7-m\libgcc.a(_arm_addsubsf3.o)
__floatundidf                                     c:/users/teamuis/appdata/local/arduino15/packages/arduino/tools/arm-none-eabi-gcc/4.8.3-2014q1/bin/../lib/gcc/arm-none-eabi/4.8.3/armv7-m\libgcc.a(_arm_addsubdf3.o)
__floatundisf                                     c:/users/teamuis/appdata/local/arduino15/packages/arduino/tools/arm-none-eabi-gcc/4.8.3-2014q1/bin/../lib/gcc/arm-none-eabi/4.8.3/armv7-m\libgcc.a(_arm_addsubsf3.o)
__floatunsidf                                     c:/users/teamuis/appdata/local/arduino15/packages/arduino/tools/arm-none-eabi-gcc/4.8.3-2014q1/bin/../lib/gcc/arm-none-eabi/4.8.3/armv7-m\libgcc.a(_arm_addsubdf3.o)
__floatunsisf                                     c:/users/teamuis/appdata/local/arduino15/packages/arduino/tools/arm-none-eabi-gcc/4.8.3-2014q1/bin/../lib/gcc/arm-none-eabi/4.8.3/armv7-m\libgcc.a(_arm_addsubsf3.o)
__fp_lock_all                                     c:/users/teamuis/appdata/local/arduino15/packages/arduino/tools/arm-none-eabi-gcc/4.8.3-2014q1/bin/../lib/gcc/arm-none-eabi/4.8.3/../../../../arm-none-eabi/lib/armv7-m\libg.a(lib_a-findfp.o)
__fp_unlock_all                                   c:/users/teamuis/appdata/local/arduino15/packages/arduino/tools/arm-none-eabi-gcc/4.8.3-2014q1/bin/../lib/gcc/arm-none-eabi/4.8.3/../../../../arm-none-eabi/lib/armv7-m\libg.a(lib_a-findfp.o)
__fpclassifyd                                     c:/users/teamuis/appdata/local/arduino15/packages/arduino/tools/arm-none-eabi-gcc/4.8.3-2014q1/bin/../lib/gcc/arm-none-eabi/4.8.3/../../../../arm-none-eabi/lib/armv7-m\libm.a(lib_a-s_fpclassify.o)
                                                  C:\Users\TeamUiS\AppData\Local\Temp\VMBuilds\Circulation\arduino_due_x_dbg\Release/core.a(Print.cpp.o)
__gedf2                                           c:/users/teamuis/appdata/local/arduino15/packages/arduino/tools/arm-none-eabi-gcc/4.8.3-2014q1/bin/../lib/gcc/arm-none-eabi/4.8.3/armv7-m\libgcc.a(_arm_cmpdf2.o)
__gesf2                                           c:/users/teamuis/appdata/local/arduino15/packages/arduino/tools/arm-none-eabi-gcc/4.8.3-2014q1/bin/../lib/gcc/arm-none-eabi/4.8.3/armv7-m\libgcc.a(_arm_cmpsf2.o)
__gnu_ldivmod_helper                              c:/users/teamuis/appdata/local/arduino15/packages/arduino/tools/arm-none-eabi-gcc/4.8.3-2014q1/bin/../lib/gcc/arm-none-eabi/4.8.3/armv7-m\libgcc.a(bpabi.o)
__gnu_uldivmod_helper                             c:/users/teamuis/appdata/local/arduino15/packages/arduino/tools/arm-none-eabi-gcc/4.8.3-2014q1/bin/../lib/gcc/arm-none-eabi/4.8.3/armv7-m\libgcc.a(bpabi.o)
                                                  c:/users/teamuis/appdata/local/arduino15/packages/arduino/tools/arm-none-eabi-gcc/4.8.3-2014q1/bin/../lib/gcc/arm-none-eabi/4.8.3/armv7-m\libgcc.a(_aeabi_uldivmod.o)
__gtdf2                                           c:/users/teamuis/appdata/local/arduino15/packages/arduino/tools/arm-none-eabi-gcc/4.8.3-2014q1/bin/../lib/gcc/arm-none-eabi/4.8.3/armv7-m\libgcc.a(_arm_cmpdf2.o)
__gtsf2                                           c:/users/teamuis/appdata/local/arduino15/packages/arduino/tools/arm-none-eabi-gcc/4.8.3-2014q1/bin/../lib/gcc/arm-none-eabi/4.8.3/armv7-m\libgcc.a(_arm_cmpsf2.o)
__init_array_end                                  c:/users/teamuis/appdata/local/arduino15/packages/arduino/tools/arm-none-eabi-gcc/4.8.3-2014q1/bin/../lib/gcc/arm-none-eabi/4.8.3/../../../../arm-none-eabi/lib/armv7-m\libg.a(lib_a-init.o)
__init_array_start                                c:/users/teamuis/appdata/local/arduino15/packages/arduino/tools/arm-none-eabi-gcc/4.8.3-2014q1/bin/../lib/gcc/arm-none-eabi/4.8.3/../../../../arm-none-eabi/lib/armv7-m\libg.a(lib_a-init.o)
__ledf2                                           c:/users/teamuis/appdata/local/arduino15/packages/arduino/tools/arm-none-eabi-gcc/4.8.3-2014q1/bin/../lib/gcc/arm-none-eabi/4.8.3/armv7-m\libgcc.a(_arm_cmpdf2.o)
__lesf2                                           c:/users/teamuis/appdata/local/arduino15/packages/arduino/tools/arm-none-eabi-gcc/4.8.3-2014q1/bin/../lib/gcc/arm-none-eabi/4.8.3/armv7-m\libgcc.a(_arm_cmpsf2.o)
__libc_fini                                       c:/users/teamuis/appdata/local/arduino15/packages/arduino/tools/arm-none-eabi-gcc/4.8.3-2014q1/bin/../lib/gcc/arm-none-eabi/4.8.3/../../../../arm-none-eabi/lib/armv7-m\libg.a(lib_a-__call_atexit.o)
__libc_fini_array                                 c:/users/teamuis/appdata/local/arduino15/packages/arduino/tools/arm-none-eabi-gcc/4.8.3-2014q1/bin/../lib/gcc/arm-none-eabi/4.8.3/../../../../arm-none-eabi/lib/armv7-m\libg.a(lib_a-fini.o)
                                                  c:/users/teamuis/appdata/local/arduino15/packages/arduino/tools/arm-none-eabi-gcc/4.8.3-2014q1/bin/../lib/gcc/arm-none-eabi/4.8.3/../../../../arm-none-eabi/lib/armv7-m\libg.a(lib_a-__call_atexit.o)
                                                  c:/users/teamuis/appdata/local/arduino15/packages/arduino/tools/arm-none-eabi-gcc/4.8.3-2014q1/bin/../lib/gcc/arm-none-eabi/4.8.3/../../../../arm-none-eabi/lib/armv7-m/crt0.o
__libc_init_array                                 c:/users/teamuis/appdata/local/arduino15/packages/arduino/tools/arm-none-eabi-gcc/4.8.3-2014q1/bin/../lib/gcc/arm-none-eabi/4.8.3/../../../../arm-none-eabi/lib/armv7-m\libg.a(lib_a-init.o)
                                                  C:\Users\TeamUiS\AppData\Local\Temp\VMBuilds\Circulation\arduino_due_x_dbg\Release\variant\variant.cpp.o
                                                  c:/users/teamuis/appdata/local/arduino15/packages/arduino/tools/arm-none-eabi-gcc/4.8.3-2014q1/bin/../lib/gcc/arm-none-eabi/4.8.3/../../../../arm-none-eabi/lib/armv7-m/crt0.o
__locale_charset                                  c:/users/teamuis/appdata/local/arduino15/packages/arduino/tools/arm-none-eabi-gcc/4.8.3-2014q1/bin/../lib/gcc/arm-none-eabi/4.8.3/../../../../arm-none-eabi/lib/armv7-m\libg.a(lib_a-locale.o)
                                                  c:/users/teamuis/appdata/local/arduino15/packages/arduino/tools/arm-none-eabi-gcc/4.8.3-2014q1/bin/../lib/gcc/arm-none-eabi/4.8.3/../../../../arm-none-eabi/lib/armv7-m\libg.a(lib_a-wctomb_r.o)
                                                  c:/users/teamuis/appdata/local/arduino15/packages/arduino/tools/arm-none-eabi-gcc/4.8.3-2014q1/bin/../lib/gcc/arm-none-eabi/4.8.3/../../../../arm-none-eabi/lib/armv7-m\libg.a(lib_a-wcrtomb.o)
__locale_cjk_lang                                 c:/users/teamuis/appdata/local/arduino15/packages/arduino/tools/arm-none-eabi-gcc/4.8.3-2014q1/bin/../lib/gcc/arm-none-eabi/4.8.3/../../../../arm-none-eabi/lib/armv7-m\libg.a(lib_a-locale.o)
__locale_mb_cur_max                               c:/users/teamuis/appdata/local/arduino15/packages/arduino/tools/arm-none-eabi-gcc/4.8.3-2014q1/bin/../lib/gcc/arm-none-eabi/4.8.3/../../../../arm-none-eabi/lib/armv7-m\libg.a(lib_a-locale.o)
                                                  c:/users/teamuis/appdata/local/arduino15/packages/arduino/tools/arm-none-eabi-gcc/4.8.3-2014q1/bin/../lib/gcc/arm-none-eabi/4.8.3/../../../../arm-none-eabi/lib/armv7-m\libg.a(lib_a-fputwc.o)
__locale_msgcharset                               c:/users/teamuis/appdata/local/arduino15/packages/arduino/tools/arm-none-eabi-gcc/4.8.3-2014q1/bin/../lib/gcc/arm-none-eabi/4.8.3/../../../../arm-none-eabi/lib/armv7-m\libg.a(lib_a-locale.o)
__ltdf2                                           c:/users/teamuis/appdata/local/arduino15/packages/arduino/tools/arm-none-eabi-gcc/4.8.3-2014q1/bin/../lib/gcc/arm-none-eabi/4.8.3/armv7-m\libgcc.a(_arm_cmpdf2.o)
__ltsf2                                           c:/users/teamuis/appdata/local/arduino15/packages/arduino/tools/arm-none-eabi-gcc/4.8.3-2014q1/bin/../lib/gcc/arm-none-eabi/4.8.3/armv7-m\libgcc.a(_arm_cmpsf2.o)
__malloc_av_                                      c:/users/teamuis/appdata/local/arduino15/packages/arduino/tools/arm-none-eabi-gcc/4.8.3-2014q1/bin/../lib/gcc/arm-none-eabi/4.8.3/../../../../arm-none-eabi/lib/armv7-m\libg.a(lib_a-mallocr.o)
                                                  c:/users/teamuis/appdata/local/arduino15/packages/arduino/tools/arm-none-eabi-gcc/4.8.3-2014q1/bin/../lib/gcc/arm-none-eabi/4.8.3/../../../../arm-none-eabi/lib/armv7-m\libg.a(lib_a-reallocr.o)
                                                  c:/users/teamuis/appdata/local/arduino15/packages/arduino/tools/arm-none-eabi-gcc/4.8.3-2014q1/bin/../lib/gcc/arm-none-eabi/4.8.3/../../../../arm-none-eabi/lib/armv7-m\libg.a(lib_a-freer.o)
__malloc_current_mallinfo                         c:/users/teamuis/appdata/local/arduino15/packages/arduino/tools/arm-none-eabi-gcc/4.8.3-2014q1/bin/../lib/gcc/arm-none-eabi/4.8.3/../../../../arm-none-eabi/lib/armv7-m\libg.a(lib_a-mallocr.o)
                                                  c:/users/teamuis/appdata/local/arduino15/packages/arduino/tools/arm-none-eabi-gcc/4.8.3-2014q1/bin/../lib/gcc/arm-none-eabi/4.8.3/../../../../arm-none-eabi/lib/armv7-m\libg.a(lib_a-freer.o)
__malloc_lock                                     c:/users/teamuis/appdata/local/arduino15/packages/arduino/tools/arm-none-eabi-gcc/4.8.3-2014q1/bin/../lib/gcc/arm-none-eabi/4.8.3/../../../../arm-none-eabi/lib/armv7-m\libg.a(lib_a-mlock.o)
                                                  c:/users/teamuis/appdata/local/arduino15/packages/arduino/tools/arm-none-eabi-gcc/4.8.3-2014q1/bin/../lib/gcc/arm-none-eabi/4.8.3/../../../../arm-none-eabi/lib/armv7-m\libg.a(lib_a-reallocr.o)
                                                  c:/users/teamuis/appdata/local/arduino15/packages/arduino/tools/arm-none-eabi-gcc/4.8.3-2014q1/bin/../lib/gcc/arm-none-eabi/4.8.3/../../../../arm-none-eabi/lib/armv7-m\libg.a(lib_a-mallocr.o)
                                                  c:/users/teamuis/appdata/local/arduino15/packages/arduino/tools/arm-none-eabi-gcc/4.8.3-2014q1/bin/../lib/gcc/arm-none-eabi/4.8.3/../../../../arm-none-eabi/lib/armv7-m\libg.a(lib_a-freer.o)
__malloc_max_sbrked_mem                           c:/users/teamuis/appdata/local/arduino15/packages/arduino/tools/arm-none-eabi-gcc/4.8.3-2014q1/bin/../lib/gcc/arm-none-eabi/4.8.3/../../../../arm-none-eabi/lib/armv7-m\libg.a(lib_a-mallocr.o)
__malloc_max_total_mem                            c:/users/teamuis/appdata/local/arduino15/packages/arduino/tools/arm-none-eabi-gcc/4.8.3-2014q1/bin/../lib/gcc/arm-none-eabi/4.8.3/../../../../arm-none-eabi/lib/armv7-m\libg.a(lib_a-mallocr.o)
__malloc_sbrk_base                                c:/users/teamuis/appdata/local/arduino15/packages/arduino/tools/arm-none-eabi-gcc/4.8.3-2014q1/bin/../lib/gcc/arm-none-eabi/4.8.3/../../../../arm-none-eabi/lib/armv7-m\libg.a(lib_a-mallocr.o)
                                                  c:/users/teamuis/appdata/local/arduino15/packages/arduino/tools/arm-none-eabi-gcc/4.8.3-2014q1/bin/../lib/gcc/arm-none-eabi/4.8.3/../../../../arm-none-eabi/lib/armv7-m\libg.a(lib_a-freer.o)
__malloc_top_pad                                  c:/users/teamuis/appdata/local/arduino15/packages/arduino/tools/arm-none-eabi-gcc/4.8.3-2014q1/bin/../lib/gcc/arm-none-eabi/4.8.3/../../../../arm-none-eabi/lib/armv7-m\libg.a(lib_a-mallocr.o)
                                                  c:/users/teamuis/appdata/local/arduino15/packages/arduino/tools/arm-none-eabi-gcc/4.8.3-2014q1/bin/../lib/gcc/arm-none-eabi/4.8.3/../../../../arm-none-eabi/lib/armv7-m\libg.a(lib_a-freer.o)
__malloc_trim_threshold                           c:/users/teamuis/appdata/local/arduino15/packages/arduino/tools/arm-none-eabi-gcc/4.8.3-2014q1/bin/../lib/gcc/arm-none-eabi/4.8.3/../../../../arm-none-eabi/lib/armv7-m\libg.a(lib_a-mallocr.o)
                                                  c:/users/teamuis/appdata/local/arduino15/packages/arduino/tools/arm-none-eabi-gcc/4.8.3-2014q1/bin/../lib/gcc/arm-none-eabi/4.8.3/../../../../arm-none-eabi/lib/armv7-m\libg.a(lib_a-freer.o)
__malloc_unlock                                   c:/users/teamuis/appdata/local/arduino15/packages/arduino/tools/arm-none-eabi-gcc/4.8.3-2014q1/bin/../lib/gcc/arm-none-eabi/4.8.3/../../../../arm-none-eabi/lib/armv7-m\libg.a(lib_a-mlock.o)
                                                  c:/users/teamuis/appdata/local/arduino15/packages/arduino/tools/arm-none-eabi-gcc/4.8.3-2014q1/bin/../lib/gcc/arm-none-eabi/4.8.3/../../../../arm-none-eabi/lib/armv7-m\libg.a(lib_a-reallocr.o)
                                                  c:/users/teamuis/appdata/local/arduino15/packages/arduino/tools/arm-none-eabi-gcc/4.8.3-2014q1/bin/../lib/gcc/arm-none-eabi/4.8.3/../../../../arm-none-eabi/lib/armv7-m\libg.a(lib_a-mallocr.o)
                                                  c:/users/teamuis/appdata/local/arduino15/packages/arduino/tools/arm-none-eabi-gcc/4.8.3-2014q1/bin/../lib/gcc/arm-none-eabi/4.8.3/../../../../arm-none-eabi/lib/armv7-m\libg.a(lib_a-freer.o)
__mb_cur_max                                      c:/users/teamuis/appdata/local/arduino15/packages/arduino/tools/arm-none-eabi-gcc/4.8.3-2014q1/bin/../lib/gcc/arm-none-eabi/4.8.3/../../../../arm-none-eabi/lib/armv7-m\libg.a(lib_a-locale.o)
__mlocale_changed                                 c:/users/teamuis/appdata/local/arduino15/packages/arduino/tools/arm-none-eabi-gcc/4.8.3-2014q1/bin/../lib/gcc/arm-none-eabi/4.8.3/../../../../arm-none-eabi/lib/armv7-m\libg.a(lib_a-locale.o)
__muldf3                                          c:/users/teamuis/appdata/local/arduino15/packages/arduino/tools/arm-none-eabi-gcc/4.8.3-2014q1/bin/../lib/gcc/arm-none-eabi/4.8.3/armv7-m\libgcc.a(_arm_muldivdf3.o)
__mulsf3                                          c:/users/teamuis/appdata/local/arduino15/packages/arduino/tools/arm-none-eabi-gcc/4.8.3-2014q1/bin/../lib/gcc/arm-none-eabi/4.8.3/armv7-m\libgcc.a(_arm_muldivsf3.o)
__nedf2                                           c:/users/teamuis/appdata/local/arduino15/packages/arduino/tools/arm-none-eabi-gcc/4.8.3-2014q1/bin/../lib/gcc/arm-none-eabi/4.8.3/armv7-m\libgcc.a(_arm_cmpdf2.o)
__nesf2                                           c:/users/teamuis/appdata/local/arduino15/packages/arduino/tools/arm-none-eabi-gcc/4.8.3-2014q1/bin/../lib/gcc/arm-none-eabi/4.8.3/armv7-m\libgcc.a(_arm_cmpsf2.o)
__nlocale_changed                                 c:/users/teamuis/appdata/local/arduino15/packages/arduino/tools/arm-none-eabi-gcc/4.8.3-2014q1/bin/../lib/gcc/arm-none-eabi/4.8.3/../../../../arm-none-eabi/lib/armv7-m\libg.a(lib_a-locale.o)
__preinit_array_end                               c:/users/teamuis/appdata/local/arduino15/packages/arduino/tools/arm-none-eabi-gcc/4.8.3-2014q1/bin/../lib/gcc/arm-none-eabi/4.8.3/../../../../arm-none-eabi/lib/armv7-m\libg.a(lib_a-init.o)
__preinit_array_start                             c:/users/teamuis/appdata/local/arduino15/packages/arduino/tools/arm-none-eabi-gcc/4.8.3-2014q1/bin/../lib/gcc/arm-none-eabi/4.8.3/../../../../arm-none-eabi/lib/armv7-m\libg.a(lib_a-init.o)
__register_exitproc                               c:/users/teamuis/appdata/local/arduino15/packages/arduino/tools/arm-none-eabi-gcc/4.8.3-2014q1/bin/../lib/gcc/arm-none-eabi/4.8.3/../../../../arm-none-eabi/lib/armv7-m\libg.a(lib_a-__atexit.o)
                                                  c:/users/teamuis/appdata/local/arduino15/packages/arduino/tools/arm-none-eabi-gcc/4.8.3-2014q1/bin/../lib/gcc/arm-none-eabi/4.8.3/../../../../arm-none-eabi/lib/armv7-m\libg.a(lib_a-atexit.o)
__register_frame_info                             c:/users/teamuis/appdata/local/arduino15/packages/arduino/tools/arm-none-eabi-gcc/4.8.3-2014q1/bin/../lib/gcc/arm-none-eabi/4.8.3/armv7-m/crtbegin.o
__sclose                                          c:/users/teamuis/appdata/local/arduino15/packages/arduino/tools/arm-none-eabi-gcc/4.8.3-2014q1/bin/../lib/gcc/arm-none-eabi/4.8.3/../../../../arm-none-eabi/lib/armv7-m\libg.a(lib_a-stdio.o)
                                                  c:/users/teamuis/appdata/local/arduino15/packages/arduino/tools/arm-none-eabi-gcc/4.8.3-2014q1/bin/../lib/gcc/arm-none-eabi/4.8.3/../../../../arm-none-eabi/lib/armv7-m\libg.a(lib_a-findfp.o)
__seofread                                        c:/users/teamuis/appdata/local/arduino15/packages/arduino/tools/arm-none-eabi-gcc/4.8.3-2014q1/bin/../lib/gcc/arm-none-eabi/4.8.3/../../../../arm-none-eabi/lib/armv7-m\libg.a(lib_a-stdio.o)
__sflush_r                                        c:/users/teamuis/appdata/local/arduino15/packages/arduino/tools/arm-none-eabi-gcc/4.8.3-2014q1/bin/../lib/gcc/arm-none-eabi/4.8.3/../../../../arm-none-eabi/lib/armv7-m\libg.a(lib_a-fflush.o)
__sfmoreglue                                      c:/users/teamuis/appdata/local/arduino15/packages/arduino/tools/arm-none-eabi-gcc/4.8.3-2014q1/bin/../lib/gcc/arm-none-eabi/4.8.3/../../../../arm-none-eabi/lib/armv7-m\libg.a(lib_a-findfp.o)
__sfp                                             c:/users/teamuis/appdata/local/arduino15/packages/arduino/tools/arm-none-eabi-gcc/4.8.3-2014q1/bin/../lib/gcc/arm-none-eabi/4.8.3/../../../../arm-none-eabi/lib/armv7-m\libg.a(lib_a-findfp.o)
__sfp_lock_acquire                                c:/users/teamuis/appdata/local/arduino15/packages/arduino/tools/arm-none-eabi-gcc/4.8.3-2014q1/bin/../lib/gcc/arm-none-eabi/4.8.3/../../../../arm-none-eabi/lib/armv7-m\libg.a(lib_a-findfp.o)
                                                  c:/users/teamuis/appdata/local/arduino15/packages/arduino/tools/arm-none-eabi-gcc/4.8.3-2014q1/bin/../lib/gcc/arm-none-eabi/4.8.3/../../../../arm-none-eabi/lib/armv7-m\libg.a(lib_a-fclose.o)
__sfp_lock_release                                c:/users/teamuis/appdata/local/arduino15/packages/arduino/tools/arm-none-eabi-gcc/4.8.3-2014q1/bin/../lib/gcc/arm-none-eabi/4.8.3/../../../../arm-none-eabi/lib/armv7-m\libg.a(lib_a-findfp.o)
                                                  c:/users/teamuis/appdata/local/arduino15/packages/arduino/tools/arm-none-eabi-gcc/4.8.3-2014q1/bin/../lib/gcc/arm-none-eabi/4.8.3/../../../../arm-none-eabi/lib/armv7-m\libg.a(lib_a-fclose.o)
__sfvwrite_r                                      c:/users/teamuis/appdata/local/arduino15/packages/arduino/tools/arm-none-eabi-gcc/4.8.3-2014q1/bin/../lib/gcc/arm-none-eabi/4.8.3/../../../../arm-none-eabi/lib/armv7-m\libg.a(lib_a-fvwrite.o)
                                                  c:/users/teamuis/appdata/local/arduino15/packages/arduino/tools/arm-none-eabi-gcc/4.8.3-2014q1/bin/../lib/gcc/arm-none-eabi/4.8.3/../../../../arm-none-eabi/lib/armv7-m\libg.a(lib_a-vfiprintf.o)
__sigtramp                                        c:/users/teamuis/appdata/local/arduino15/packages/arduino/tools/arm-none-eabi-gcc/4.8.3-2014q1/bin/../lib/gcc/arm-none-eabi/4.8.3/../../../../arm-none-eabi/lib/armv7-m\libg.a(lib_a-signal.o)
__sigtramp_r                                      c:/users/teamuis/appdata/local/arduino15/packages/arduino/tools/arm-none-eabi-gcc/4.8.3-2014q1/bin/../lib/gcc/arm-none-eabi/4.8.3/../../../../arm-none-eabi/lib/armv7-m\libg.a(lib_a-signal.o)
__sinit                                           c:/users/teamuis/appdata/local/arduino15/packages/arduino/tools/arm-none-eabi-gcc/4.8.3-2014q1/bin/../lib/gcc/arm-none-eabi/4.8.3/../../../../arm-none-eabi/lib/armv7-m\libg.a(lib_a-findfp.o)
                                                  c:/users/teamuis/appdata/local/arduino15/packages/arduino/tools/arm-none-eabi-gcc/4.8.3-2014q1/bin/../lib/gcc/arm-none-eabi/4.8.3/../../../../arm-none-eabi/lib/armv7-m\libg.a(lib_a-fclose.o)
                                                  c:/users/teamuis/appdata/local/arduino15/packages/arduino/tools/arm-none-eabi-gcc/4.8.3-2014q1/bin/../lib/gcc/arm-none-eabi/4.8.3/../../../../arm-none-eabi/lib/armv7-m\libg.a(lib_a-wbuf.o)
                                                  c:/users/teamuis/appdata/local/arduino15/packages/arduino/tools/arm-none-eabi-gcc/4.8.3-2014q1/bin/../lib/gcc/arm-none-eabi/4.8.3/../../../../arm-none-eabi/lib/armv7-m\libg.a(lib_a-fputwc.o)
                                                  c:/users/teamuis/appdata/local/arduino15/packages/arduino/tools/arm-none-eabi-gcc/4.8.3-2014q1/bin/../lib/gcc/arm-none-eabi/4.8.3/../../../../arm-none-eabi/lib/armv7-m\libg.a(lib_a-fflush.o)
                                                  c:/users/teamuis/appdata/local/arduino15/packages/arduino/tools/arm-none-eabi-gcc/4.8.3-2014q1/bin/../lib/gcc/arm-none-eabi/4.8.3/../../../../arm-none-eabi/lib/armv7-m\libg.a(lib_a-wsetup.o)
                                                  c:/users/teamuis/appdata/local/arduino15/packages/arduino/tools/arm-none-eabi-gcc/4.8.3-2014q1/bin/../lib/gcc/arm-none-eabi/4.8.3/../../../../arm-none-eabi/lib/armv7-m\libg.a(lib_a-vfiprintf.o)
__sinit_lock_acquire                              c:/users/teamuis/appdata/local/arduino15/packages/arduino/tools/arm-none-eabi-gcc/4.8.3-2014q1/bin/../lib/gcc/arm-none-eabi/4.8.3/../../../../arm-none-eabi/lib/armv7-m\libg.a(lib_a-findfp.o)
__sinit_lock_release                              c:/users/teamuis/appdata/local/arduino15/packages/arduino/tools/arm-none-eabi-gcc/4.8.3-2014q1/bin/../lib/gcc/arm-none-eabi/4.8.3/../../../../arm-none-eabi/lib/armv7-m\libg.a(lib_a-findfp.o)
__smakebuf_r                                      c:/users/teamuis/appdata/local/arduino15/packages/arduino/tools/arm-none-eabi-gcc/4.8.3-2014q1/bin/../lib/gcc/arm-none-eabi/4.8.3/../../../../arm-none-eabi/lib/armv7-m\libg.a(lib_a-makebuf.o)
                                                  c:/users/teamuis/appdata/local/arduino15/packages/arduino/tools/arm-none-eabi-gcc/4.8.3-2014q1/bin/../lib/gcc/arm-none-eabi/4.8.3/../../../../arm-none-eabi/lib/armv7-m\libg.a(lib_a-wsetup.o)
__sprint_r                                        c:/users/teamuis/appdata/local/arduino15/packages/arduino/tools/arm-none-eabi-gcc/4.8.3-2014q1/bin/../lib/gcc/arm-none-eabi/4.8.3/../../../../arm-none-eabi/lib/armv7-m\libg.a(lib_a-vfiprintf.o)
__sread                                           c:/users/teamuis/appdata/local/arduino15/packages/arduino/tools/arm-none-eabi-gcc/4.8.3-2014q1/bin/../lib/gcc/arm-none-eabi/4.8.3/../../../../arm-none-eabi/lib/armv7-m\libg.a(lib_a-stdio.o)
                                                  c:/users/teamuis/appdata/local/arduino15/packages/arduino/tools/arm-none-eabi-gcc/4.8.3-2014q1/bin/../lib/gcc/arm-none-eabi/4.8.3/../../../../arm-none-eabi/lib/armv7-m\libg.a(lib_a-findfp.o)
__sseek                                           c:/users/teamuis/appdata/local/arduino15/packages/arduino/tools/arm-none-eabi-gcc/4.8.3-2014q1/bin/../lib/gcc/arm-none-eabi/4.8.3/../../../../arm-none-eabi/lib/armv7-m\libg.a(lib_a-stdio.o)
                                                  c:/users/teamuis/appdata/local/arduino15/packages/arduino/tools/arm-none-eabi-gcc/4.8.3-2014q1/bin/../lib/gcc/arm-none-eabi/4.8.3/../../../../arm-none-eabi/lib/armv7-m\libg.a(lib_a-makebuf.o)
                                                  c:/users/teamuis/appdata/local/arduino15/packages/arduino/tools/arm-none-eabi-gcc/4.8.3-2014q1/bin/../lib/gcc/arm-none-eabi/4.8.3/../../../../arm-none-eabi/lib/armv7-m\libg.a(lib_a-findfp.o)
__stack                                           c:/users/teamuis/appdata/local/arduino15/packages/arduino/tools/arm-none-eabi-gcc/4.8.3-2014q1/bin/../lib/gcc/arm-none-eabi/4.8.3/../../../../arm-none-eabi/lib/armv7-m/crt0.o
__subdf3                                          c:/users/teamuis/appdata/local/arduino15/packages/arduino/tools/arm-none-eabi-gcc/4.8.3-2014q1/bin/../lib/gcc/arm-none-eabi/4.8.3/armv7-m\libgcc.a(_arm_addsubdf3.o)
__subsf3                                          c:/users/teamuis/appdata/local/arduino15/packages/arduino/tools/arm-none-eabi-gcc/4.8.3-2014q1/bin/../lib/gcc/arm-none-eabi/4.8.3/armv7-m\libgcc.a(_arm_addsubsf3.o)
__swbuf                                           c:/users/teamuis/appdata/local/arduino15/packages/arduino/tools/arm-none-eabi-gcc/4.8.3-2014q1/bin/../lib/gcc/arm-none-eabi/4.8.3/../../../../arm-none-eabi/lib/armv7-m\libg.a(lib_a-wbuf.o)
__swbuf_r                                         c:/users/teamuis/appdata/local/arduino15/packages/arduino/tools/arm-none-eabi-gcc/4.8.3-2014q1/bin/../lib/gcc/arm-none-eabi/4.8.3/../../../../arm-none-eabi/lib/armv7-m\libg.a(lib_a-wbuf.o)
                                                  c:/users/teamuis/appdata/local/arduino15/packages/arduino/tools/arm-none-eabi-gcc/4.8.3-2014q1/bin/../lib/gcc/arm-none-eabi/4.8.3/../../../../arm-none-eabi/lib/armv7-m\libg.a(lib_a-fputwc.o)
__swrite                                          c:/users/teamuis/appdata/local/arduino15/packages/arduino/tools/arm-none-eabi-gcc/4.8.3-2014q1/bin/../lib/gcc/arm-none-eabi/4.8.3/../../../../arm-none-eabi/lib/armv7-m\libg.a(lib_a-stdio.o)
                                                  c:/users/teamuis/appdata/local/arduino15/packages/arduino/tools/arm-none-eabi-gcc/4.8.3-2014q1/bin/../lib/gcc/arm-none-eabi/4.8.3/../../../../arm-none-eabi/lib/armv7-m\libg.a(lib_a-findfp.o)
__swsetup_r                                       c:/users/teamuis/appdata/local/arduino15/packages/arduino/tools/arm-none-eabi-gcc/4.8.3-2014q1/bin/../lib/gcc/arm-none-eabi/4.8.3/../../../../arm-none-eabi/lib/armv7-m\libg.a(lib_a-wsetup.o)
                                                  c:/users/teamuis/appdata/local/arduino15/packages/arduino/tools/arm-none-eabi-gcc/4.8.3-2014q1/bin/../lib/gcc/arm-none-eabi/4.8.3/../../../../arm-none-eabi/lib/armv7-m\libg.a(lib_a-wbuf.o)
                                                  c:/users/teamuis/appdata/local/arduino15/packages/arduino/tools/arm-none-eabi-gcc/4.8.3-2014q1/bin/../lib/gcc/arm-none-eabi/4.8.3/../../../../arm-none-eabi/lib/armv7-m\libg.a(lib_a-fvwrite.o)
                                                  c:/users/teamuis/appdata/local/arduino15/packages/arduino/tools/arm-none-eabi-gcc/4.8.3-2014q1/bin/../lib/gcc/arm-none-eabi/4.8.3/../../../../arm-none-eabi/lib/armv7-m\libg.a(lib_a-vfiprintf.o)
__truncdfsf2                                      c:/users/teamuis/appdata/local/arduino15/packages/arduino/tools/arm-none-eabi-gcc/4.8.3-2014q1/bin/../lib/gcc/arm-none-eabi/4.8.3/armv7-m\libgcc.a(_arm_truncdfsf2.o)
__udivdi3                                         c:/users/teamuis/appdata/local/arduino15/packages/arduino/tools/arm-none-eabi-gcc/4.8.3-2014q1/bin/../lib/gcc/arm-none-eabi/4.8.3/armv7-m\libgcc.a(_udivdi3.o)
                                                  c:/users/teamuis/appdata/local/arduino15/packages/arduino/tools/arm-none-eabi-gcc/4.8.3-2014q1/bin/../lib/gcc/arm-none-eabi/4.8.3/armv7-m\libgcc.a(bpabi.o)
__wctomb                                          c:/users/teamuis/appdata/local/arduino15/packages/arduino/tools/arm-none-eabi-gcc/4.8.3-2014q1/bin/../lib/gcc/arm-none-eabi/4.8.3/../../../../arm-none-eabi/lib/armv7-m\libg.a(lib_a-wctomb_r.o)
                                                  c:/users/teamuis/appdata/local/arduino15/packages/arduino/tools/arm-none-eabi-gcc/4.8.3-2014q1/bin/../lib/gcc/arm-none-eabi/4.8.3/../../../../arm-none-eabi/lib/armv7-m\libg.a(lib_a-wcrtomb.o)
_cdcComposite                                     C:\Users\TeamUiS\AppData\Local\Temp\VMBuilds\Circulation\arduino_due_x_dbg\Release/core.a(USBCore.cpp.o)
_cend                                             C:\Users\TeamUiS\AppData\Local\Temp\VMBuilds\Circulation\arduino_due_x_dbg\Release/core.a(USBCore.cpp.o)
_cleanup                                          c:/users/teamuis/appdata/local/arduino15/packages/arduino/tools/arm-none-eabi-gcc/4.8.3-2014q1/bin/../lib/gcc/arm-none-eabi/4.8.3/../../../../arm-none-eabi/lib/armv7-m\libg.a(lib_a-findfp.o)
_cleanup_r                                        c:/users/teamuis/appdata/local/arduino15/packages/arduino/tools/arm-none-eabi-gcc/4.8.3-2014q1/bin/../lib/gcc/arm-none-eabi/4.8.3/../../../../arm-none-eabi/lib/armv7-m\libg.a(lib_a-findfp.o)
                                                  c:/users/teamuis/appdata/local/arduino15/packages/arduino/tools/arm-none-eabi-gcc/4.8.3-2014q1/bin/../lib/gcc/arm-none-eabi/4.8.3/../../../../arm-none-eabi/lib/armv7-m\libg.a(lib_a-makebuf.o)
_close                                            C:\Users\TeamUiS\AppData\Local\Temp\VMBuilds\Circulation\arduino_due_x_dbg\Release/core.a(syscalls_sam3.c.o)
                                                  c:/users/teamuis/appdata/local/arduino15/packages/arduino/tools/arm-none-eabi-gcc/4.8.3-2014q1/bin/../lib/gcc/arm-none-eabi/4.8.3/../../../../arm-none-eabi/lib/armv7-m\libg.a(lib_a-closer.o)
_close_r                                          c:/users/teamuis/appdata/local/arduino15/packages/arduino/tools/arm-none-eabi-gcc/4.8.3-2014q1/bin/../lib/gcc/arm-none-eabi/4.8.3/../../../../arm-none-eabi/lib/armv7-m\libg.a(lib_a-closer.o)
                                                  c:/users/teamuis/appdata/local/arduino15/packages/arduino/tools/arm-none-eabi-gcc/4.8.3-2014q1/bin/../lib/gcc/arm-none-eabi/4.8.3/../../../../arm-none-eabi/lib/armv7-m\libg.a(lib_a-stdio.o)
_cmark                                            C:\Users\TeamUiS\AppData\Local\Temp\VMBuilds\Circulation\arduino_due_x_dbg\Release/core.a(USBCore.cpp.o)
_end                                              C:\Users\TeamUiS\AppData\Local\Temp\VMBuilds\Circulation\arduino_due_x_dbg\Release/core.a(syscalls_sam3.c.o)
_erelocate                                        C:\Users\TeamUiS\AppData\Local\arduino15\packages\arduino\hardware\sam\1.6.11\variants\arduino_due_x/libsam_sam3x8e_gcc_rel.a(startup_sam3xa.o)
_estack                                           C:\Users\TeamUiS\AppData\Local\arduino15\packages\arduino\hardware\sam\1.6.11\variants\arduino_due_x/libsam_sam3x8e_gcc_rel.a(startup_sam3xa.o)
_etext                                            C:\Users\TeamUiS\AppData\Local\arduino15\packages\arduino\hardware\sam\1.6.11\variants\arduino_due_x/libsam_sam3x8e_gcc_rel.a(startup_sam3xa.o)
_exit                                             C:\Users\TeamUiS\AppData\Local\Temp\VMBuilds\Circulation\arduino_due_x_dbg\Release/core.a(syscalls_sam3.c.o)
                                                  c:/users/teamuis/appdata/local/arduino15/packages/arduino/tools/arm-none-eabi-gcc/4.8.3-2014q1/bin/../lib/gcc/arm-none-eabi/4.8.3/../../../../arm-none-eabi/lib/armv7-m\libg.a(lib_a-abort.o)
                                                  c:/users/teamuis/appdata/local/arduino15/packages/arduino/tools/arm-none-eabi-gcc/4.8.3-2014q1/bin/../lib/gcc/arm-none-eabi/4.8.3/../../../../arm-none-eabi/lib/armv7-m\libg.a(lib_a-exit.o)
_ezero                                            C:\Users\TeamUiS\AppData\Local\arduino15\packages\arduino\hardware\sam\1.6.11\variants\arduino_due_x/libsam_sam3x8e_gcc_rel.a(startup_sam3xa.o)
_fclose_r                                         c:/users/teamuis/appdata/local/arduino15/packages/arduino/tools/arm-none-eabi-gcc/4.8.3-2014q1/bin/../lib/gcc/arm-none-eabi/4.8.3/../../../../arm-none-eabi/lib/armv7-m\libg.a(lib_a-fclose.o)
_fflush_r                                         c:/users/teamuis/appdata/local/arduino15/packages/arduino/tools/arm-none-eabi-gcc/4.8.3-2014q1/bin/../lib/gcc/arm-none-eabi/4.8.3/../../../../arm-none-eabi/lib/armv7-m\libg.a(lib_a-fflush.o)
                                                  c:/users/teamuis/appdata/local/arduino15/packages/arduino/tools/arm-none-eabi-gcc/4.8.3-2014q1/bin/../lib/gcc/arm-none-eabi/4.8.3/../../../../arm-none-eabi/lib/armv7-m\libg.a(lib_a-fclose.o)
                                                  c:/users/teamuis/appdata/local/arduino15/packages/arduino/tools/arm-none-eabi-gcc/4.8.3-2014q1/bin/../lib/gcc/arm-none-eabi/4.8.3/../../../../arm-none-eabi/lib/armv7-m\libg.a(lib_a-wbuf.o)
                                                  c:/users/teamuis/appdata/local/arduino15/packages/arduino/tools/arm-none-eabi-gcc/4.8.3-2014q1/bin/../lib/gcc/arm-none-eabi/4.8.3/../../../../arm-none-eabi/lib/armv7-m\libg.a(lib_a-fvwrite.o)
                                                  c:/users/teamuis/appdata/local/arduino15/packages/arduino/tools/arm-none-eabi-gcc/4.8.3-2014q1/bin/../lib/gcc/arm-none-eabi/4.8.3/../../../../arm-none-eabi/lib/armv7-m\libg.a(lib_a-vfiprintf.o)
_fini                                             c:/users/teamuis/appdata/local/arduino15/packages/arduino/tools/arm-none-eabi-gcc/4.8.3-2014q1/bin/../lib/gcc/arm-none-eabi/4.8.3/armv7-m/crti.o
                                                  c:/users/teamuis/appdata/local/arduino15/packages/arduino/tools/arm-none-eabi-gcc/4.8.3-2014q1/bin/../lib/gcc/arm-none-eabi/4.8.3/../../../../arm-none-eabi/lib/armv7-m\libg.a(lib_a-fini.o)
_fiprintf_r                                       c:/users/teamuis/appdata/local/arduino15/packages/arduino/tools/arm-none-eabi-gcc/4.8.3-2014q1/bin/../lib/gcc/arm-none-eabi/4.8.3/../../../../arm-none-eabi/lib/armv7-m\libg.a(lib_a-fiprintf.o)
_fputwc_r                                         c:/users/teamuis/appdata/local/arduino15/packages/arduino/tools/arm-none-eabi-gcc/4.8.3-2014q1/bin/../lib/gcc/arm-none-eabi/4.8.3/../../../../arm-none-eabi/lib/armv7-m\libg.a(lib_a-fputwc.o)
                                                  c:/users/teamuis/appdata/local/arduino15/packages/arduino/tools/arm-none-eabi-gcc/4.8.3-2014q1/bin/../lib/gcc/arm-none-eabi/4.8.3/../../../../arm-none-eabi/lib/armv7-m\libg.a(lib_a-vfiprintf.o)
_free_r                                           c:/users/teamuis/appdata/local/arduino15/packages/arduino/tools/arm-none-eabi-gcc/4.8.3-2014q1/bin/../lib/gcc/arm-none-eabi/4.8.3/../../../../arm-none-eabi/lib/armv7-m\libg.a(lib_a-freer.o)
                                                  c:/users/teamuis/appdata/local/arduino15/packages/arduino/tools/arm-none-eabi-gcc/4.8.3-2014q1/bin/../lib/gcc/arm-none-eabi/4.8.3/../../../../arm-none-eabi/lib/armv7-m\libg.a(lib_a-reent.o)
                                                  c:/users/teamuis/appdata/local/arduino15/packages/arduino/tools/arm-none-eabi-gcc/4.8.3-2014q1/bin/../lib/gcc/arm-none-eabi/4.8.3/../../../../arm-none-eabi/lib/armv7-m\libg.a(lib_a-fclose.o)
                                                  c:/users/teamuis/appdata/local/arduino15/packages/arduino/tools/arm-none-eabi-gcc/4.8.3-2014q1/bin/../lib/gcc/arm-none-eabi/4.8.3/../../../../arm-none-eabi/lib/armv7-m\libg.a(lib_a-reallocr.o)
                                                  c:/users/teamuis/appdata/local/arduino15/packages/arduino/tools/arm-none-eabi-gcc/4.8.3-2014q1/bin/../lib/gcc/arm-none-eabi/4.8.3/../../../../arm-none-eabi/lib/armv7-m\libg.a(lib_a-mallocr.o)
                                                  c:/users/teamuis/appdata/local/arduino15/packages/arduino/tools/arm-none-eabi-gcc/4.8.3-2014q1/bin/../lib/gcc/arm-none-eabi/4.8.3/../../../../arm-none-eabi/lib/armv7-m\libg.a(lib_a-fvwrite.o)
                                                  c:/users/teamuis/appdata/local/arduino15/packages/arduino/tools/arm-none-eabi-gcc/4.8.3-2014q1/bin/../lib/gcc/arm-none-eabi/4.8.3/../../../../arm-none-eabi/lib/armv7-m\libg.a(lib_a-fflush.o)
                                                  c:/users/teamuis/appdata/local/arduino15/packages/arduino/tools/arm-none-eabi-gcc/4.8.3-2014q1/bin/../lib/gcc/arm-none-eabi/4.8.3/../../../../arm-none-eabi/lib/armv7-m\libg.a(lib_a-wsetup.o)
_fstat                                            C:\Users\TeamUiS\AppData\Local\Temp\VMBuilds\Circulation\arduino_due_x_dbg\Release/core.a(syscalls_sam3.c.o)
                                                  c:/users/teamuis/appdata/local/arduino15/packages/arduino/tools/arm-none-eabi-gcc/4.8.3-2014q1/bin/../lib/gcc/arm-none-eabi/4.8.3/../../../../arm-none-eabi/lib/armv7-m\libg.a(lib_a-fstatr.o)
_fstat_r                                          c:/users/teamuis/appdata/local/arduino15/packages/arduino/tools/arm-none-eabi-gcc/4.8.3-2014q1/bin/../lib/gcc/arm-none-eabi/4.8.3/../../../../arm-none-eabi/lib/armv7-m\libg.a(lib_a-fstatr.o)
                                                  c:/users/teamuis/appdata/local/arduino15/packages/arduino/tools/arm-none-eabi-gcc/4.8.3-2014q1/bin/../lib/gcc/arm-none-eabi/4.8.3/../../../../arm-none-eabi/lib/armv7-m\libg.a(lib_a-makebuf.o)
_fwalk                                            c:/users/teamuis/appdata/local/arduino15/packages/arduino/tools/arm-none-eabi-gcc/4.8.3-2014q1/bin/../lib/gcc/arm-none-eabi/4.8.3/../../../../arm-none-eabi/lib/armv7-m\libg.a(lib_a-fwalk.o)
                                                  c:/users/teamuis/appdata/local/arduino15/packages/arduino/tools/arm-none-eabi-gcc/4.8.3-2014q1/bin/../lib/gcc/arm-none-eabi/4.8.3/../../../../arm-none-eabi/lib/armv7-m\libg.a(lib_a-findfp.o)
_fwalk_reent                                      c:/users/teamuis/appdata/local/arduino15/packages/arduino/tools/arm-none-eabi-gcc/4.8.3-2014q1/bin/../lib/gcc/arm-none-eabi/4.8.3/../../../../arm-none-eabi/lib/armv7-m\libg.a(lib_a-fwalk.o)
                                                  c:/users/teamuis/appdata/local/arduino15/packages/arduino/tools/arm-none-eabi-gcc/4.8.3-2014q1/bin/../lib/gcc/arm-none-eabi/4.8.3/../../../../arm-none-eabi/lib/armv7-m\libg.a(lib_a-fflush.o)
_getpid                                           C:\Users\TeamUiS\AppData\Local\Temp\VMBuilds\Circulation\arduino_due_x_dbg\Release/core.a(syscalls_sam3.c.o)
                                                  c:/users/teamuis/appdata/local/arduino15/packages/arduino/tools/arm-none-eabi-gcc/4.8.3-2014q1/bin/../lib/gcc/arm-none-eabi/4.8.3/../../../../arm-none-eabi/lib/armv7-m\libg.a(lib_a-signalr.o)
_getpid_r                                         c:/users/teamuis/appdata/local/arduino15/packages/arduino/tools/arm-none-eabi-gcc/4.8.3-2014q1/bin/../lib/gcc/arm-none-eabi/4.8.3/../../../../arm-none-eabi/lib/armv7-m\libg.a(lib_a-signalr.o)
                                                  c:/users/teamuis/appdata/local/arduino15/packages/arduino/tools/arm-none-eabi-gcc/4.8.3-2014q1/bin/../lib/gcc/arm-none-eabi/4.8.3/../../../../arm-none-eabi/lib/armv7-m\libg.a(lib_a-signal.o)
_global_impure_ptr                                c:/users/teamuis/appdata/local/arduino15/packages/arduino/tools/arm-none-eabi-gcc/4.8.3-2014q1/bin/../lib/gcc/arm-none-eabi/4.8.3/../../../../arm-none-eabi/lib/armv7-m\libg.a(lib_a-impure.o)
                                                  c:/users/teamuis/appdata/local/arduino15/packages/arduino/tools/arm-none-eabi-gcc/4.8.3-2014q1/bin/../lib/gcc/arm-none-eabi/4.8.3/../../../../arm-none-eabi/lib/armv7-m\libg.a(lib_a-__atexit.o)
                                                  c:/users/teamuis/appdata/local/arduino15/packages/arduino/tools/arm-none-eabi-gcc/4.8.3-2014q1/bin/../lib/gcc/arm-none-eabi/4.8.3/../../../../arm-none-eabi/lib/armv7-m\libg.a(lib_a-findfp.o)
                                                  c:/users/teamuis/appdata/local/arduino15/packages/arduino/tools/arm-none-eabi-gcc/4.8.3-2014q1/bin/../lib/gcc/arm-none-eabi/4.8.3/../../../../arm-none-eabi/lib/armv7-m\libg.a(lib_a-fflush.o)
                                                  c:/users/teamuis/appdata/local/arduino15/packages/arduino/tools/arm-none-eabi-gcc/4.8.3-2014q1/bin/../lib/gcc/arm-none-eabi/4.8.3/../../../../arm-none-eabi/lib/armv7-m\libg.a(lib_a-__call_atexit.o)
                                                  c:/users/teamuis/appdata/local/arduino15/packages/arduino/tools/arm-none-eabi-gcc/4.8.3-2014q1/bin/../lib/gcc/arm-none-eabi/4.8.3/../../../../arm-none-eabi/lib/armv7-m\libg.a(lib_a-exit.o)
_impure_ptr                                       c:/users/teamuis/appdata/local/arduino15/packages/arduino/tools/arm-none-eabi-gcc/4.8.3-2014q1/bin/../lib/gcc/arm-none-eabi/4.8.3/../../../../arm-none-eabi/lib/armv7-m\libg.a(lib_a-impure.o)
                                                  c:/users/teamuis/appdata/local/arduino15/packages/arduino/tools/arm-none-eabi-gcc/4.8.3-2014q1/bin/../lib/gcc/arm-none-eabi/4.8.3/../../../../arm-none-eabi/lib/armv7-m\libg.a(lib_a-reent.o)
                                                  c:/users/teamuis/appdata/local/arduino15/packages/arduino/tools/arm-none-eabi-gcc/4.8.3-2014q1/bin/../lib/gcc/arm-none-eabi/4.8.3/../../../../arm-none-eabi/lib/armv7-m\libg.a(lib_a-fclose.o)
                                                  c:/users/teamuis/appdata/local/arduino15/packages/arduino/tools/arm-none-eabi-gcc/4.8.3-2014q1/bin/../lib/gcc/arm-none-eabi/4.8.3/../../../../arm-none-eabi/lib/armv7-m\libg.a(lib_a-wcrtomb.o)
                                                  c:/users/teamuis/appdata/local/arduino15/packages/arduino/tools/arm-none-eabi-gcc/4.8.3-2014q1/bin/../lib/gcc/arm-none-eabi/4.8.3/../../../../arm-none-eabi/lib/armv7-m\libg.a(lib_a-wbuf.o)
                                                  c:/users/teamuis/appdata/local/arduino15/packages/arduino/tools/arm-none-eabi-gcc/4.8.3-2014q1/bin/../lib/gcc/arm-none-eabi/4.8.3/../../../../arm-none-eabi/lib/armv7-m\libg.a(lib_a-signal.o)
                                                  c:/users/teamuis/appdata/local/arduino15/packages/arduino/tools/arm-none-eabi-gcc/4.8.3-2014q1/bin/../lib/gcc/arm-none-eabi/4.8.3/../../../../arm-none-eabi/lib/armv7-m\libg.a(lib_a-locale.o)
                                                  c:/users/teamuis/appdata/local/arduino15/packages/arduino/tools/arm-none-eabi-gcc/4.8.3-2014q1/bin/../lib/gcc/arm-none-eabi/4.8.3/../../../../arm-none-eabi/lib/armv7-m\libg.a(lib_a-fputwc.o)
                                                  c:/users/teamuis/appdata/local/arduino15/packages/arduino/tools/arm-none-eabi-gcc/4.8.3-2014q1/bin/../lib/gcc/arm-none-eabi/4.8.3/../../../../arm-none-eabi/lib/armv7-m\libg.a(lib_a-findfp.o)
                                                  c:/users/teamuis/appdata/local/arduino15/packages/arduino/tools/arm-none-eabi-gcc/4.8.3-2014q1/bin/../lib/gcc/arm-none-eabi/4.8.3/../../../../arm-none-eabi/lib/armv7-m\libg.a(lib_a-fflush.o)
                                                  c:/users/teamuis/appdata/local/arduino15/packages/arduino/tools/arm-none-eabi-gcc/4.8.3-2014q1/bin/../lib/gcc/arm-none-eabi/4.8.3/../../../../arm-none-eabi/lib/armv7-m\libg.a(lib_a-wsetup.o)
                                                  c:/users/teamuis/appdata/local/arduino15/packages/arduino/tools/arm-none-eabi-gcc/4.8.3-2014q1/bin/../lib/gcc/arm-none-eabi/4.8.3/../../../../arm-none-eabi/lib/armv7-m\libg.a(lib_a-vfiprintf.o)
                                                  c:/users/teamuis/appdata/local/arduino15/packages/arduino/tools/arm-none-eabi-gcc/4.8.3-2014q1/bin/../lib/gcc/arm-none-eabi/4.8.3/../../../../arm-none-eabi/lib/armv7-m\libg.a(lib_a-syskill.o)
                                                  c:/users/teamuis/appdata/local/arduino15/packages/arduino/tools/arm-none-eabi-gcc/4.8.3-2014q1/bin/../lib/gcc/arm-none-eabi/4.8.3/../../../../arm-none-eabi/lib/armv7-m\libg.a(lib_a-iprintf.o)
                                                  c:/users/teamuis/appdata/local/arduino15/packages/arduino/tools/arm-none-eabi-gcc/4.8.3-2014q1/bin/../lib/gcc/arm-none-eabi/4.8.3/../../../../arm-none-eabi/lib/armv7-m\libg.a(lib_a-fiprintf.o)
                                                  c:/users/teamuis/appdata/local/arduino15/packages/arduino/tools/arm-none-eabi-gcc/4.8.3-2014q1/bin/../lib/gcc/arm-none-eabi/4.8.3/../../../../arm-none-eabi/lib/armv7-m\libg.a(lib_a-assert.o)
_init                                             c:/users/teamuis/appdata/local/arduino15/packages/arduino/tools/arm-none-eabi-gcc/4.8.3-2014q1/bin/../lib/gcc/arm-none-eabi/4.8.3/armv7-m/crti.o
                                                  c:/users/teamuis/appdata/local/arduino15/packages/arduino/tools/arm-none-eabi-gcc/4.8.3-2014q1/bin/../lib/gcc/arm-none-eabi/4.8.3/../../../../arm-none-eabi/lib/armv7-m\libg.a(lib_a-init.o)
_init_signal                                      c:/users/teamuis/appdata/local/arduino15/packages/arduino/tools/arm-none-eabi-gcc/4.8.3-2014q1/bin/../lib/gcc/arm-none-eabi/4.8.3/../../../../arm-none-eabi/lib/armv7-m\libg.a(lib_a-signal.o)
_init_signal_r                                    c:/users/teamuis/appdata/local/arduino15/packages/arduino/tools/arm-none-eabi-gcc/4.8.3-2014q1/bin/../lib/gcc/arm-none-eabi/4.8.3/../../../../arm-none-eabi/lib/armv7-m\libg.a(lib_a-signal.o)
_iprintf_r                                        c:/users/teamuis/appdata/local/arduino15/packages/arduino/tools/arm-none-eabi-gcc/4.8.3-2014q1/bin/../lib/gcc/arm-none-eabi/4.8.3/../../../../arm-none-eabi/lib/armv7-m\libg.a(lib_a-iprintf.o)
_isatty                                           C:\Users\TeamUiS\AppData\Local\Temp\VMBuilds\Circulation\arduino_due_x_dbg\Release/core.a(syscalls_sam3.c.o)
                                                  c:/users/teamuis/appdata/local/arduino15/packages/arduino/tools/arm-none-eabi-gcc/4.8.3-2014q1/bin/../lib/gcc/arm-none-eabi/4.8.3/../../../../arm-none-eabi/lib/armv7-m\libg.a(lib_a-isattyr.o)
_isatty_r                                         c:/users/teamuis/appdata/local/arduino15/packages/arduino/tools/arm-none-eabi-gcc/4.8.3-2014q1/bin/../lib/gcc/arm-none-eabi/4.8.3/../../../../arm-none-eabi/lib/armv7-m\libg.a(lib_a-isattyr.o)
                                                  c:/users/teamuis/appdata/local/arduino15/packages/arduino/tools/arm-none-eabi-gcc/4.8.3-2014q1/bin/../lib/gcc/arm-none-eabi/4.8.3/../../../../arm-none-eabi/lib/armv7-m\libg.a(lib_a-makebuf.o)
_kill                                             C:\Users\TeamUiS\AppData\Local\Temp\VMBuilds\Circulation\arduino_due_x_dbg\Release/core.a(syscalls_sam3.c.o)
                                                  c:/users/teamuis/appdata/local/arduino15/packages/arduino/tools/arm-none-eabi-gcc/4.8.3-2014q1/bin/../lib/gcc/arm-none-eabi/4.8.3/../../../../arm-none-eabi/lib/armv7-m\libg.a(lib_a-signalr.o)
_kill_r                                           c:/users/teamuis/appdata/local/arduino15/packages/arduino/tools/arm-none-eabi-gcc/4.8.3-2014q1/bin/../lib/gcc/arm-none-eabi/4.8.3/../../../../arm-none-eabi/lib/armv7-m\libg.a(lib_a-signalr.o)
                                                  c:/users/teamuis/appdata/local/arduino15/packages/arduino/tools/arm-none-eabi-gcc/4.8.3-2014q1/bin/../lib/gcc/arm-none-eabi/4.8.3/../../../../arm-none-eabi/lib/armv7-m\libg.a(lib_a-signal.o)
                                                  c:/users/teamuis/appdata/local/arduino15/packages/arduino/tools/arm-none-eabi-gcc/4.8.3-2014q1/bin/../lib/gcc/arm-none-eabi/4.8.3/../../../../arm-none-eabi/lib/armv7-m\libg.a(lib_a-syskill.o)
_localeconv_r                                     c:/users/teamuis/appdata/local/arduino15/packages/arduino/tools/arm-none-eabi-gcc/4.8.3-2014q1/bin/../lib/gcc/arm-none-eabi/4.8.3/../../../../arm-none-eabi/lib/armv7-m\libg.a(lib_a-locale.o)
_lseek                                            C:\Users\TeamUiS\AppData\Local\Temp\VMBuilds\Circulation\arduino_due_x_dbg\Release/core.a(syscalls_sam3.c.o)
                                                  c:/users/teamuis/appdata/local/arduino15/packages/arduino/tools/arm-none-eabi-gcc/4.8.3-2014q1/bin/../lib/gcc/arm-none-eabi/4.8.3/../../../../arm-none-eabi/lib/armv7-m\libg.a(lib_a-lseekr.o)
_lseek_r                                          c:/users/teamuis/appdata/local/arduino15/packages/arduino/tools/arm-none-eabi-gcc/4.8.3-2014q1/bin/../lib/gcc/arm-none-eabi/4.8.3/../../../../arm-none-eabi/lib/armv7-m\libg.a(lib_a-lseekr.o)
                                                  c:/users/teamuis/appdata/local/arduino15/packages/arduino/tools/arm-none-eabi-gcc/4.8.3-2014q1/bin/../lib/gcc/arm-none-eabi/4.8.3/../../../../arm-none-eabi/lib/armv7-m\libg.a(lib_a-stdio.o)
_mainCRTStartup                                   c:/users/teamuis/appdata/local/arduino15/packages/arduino/tools/arm-none-eabi-gcc/4.8.3-2014q1/bin/../lib/gcc/arm-none-eabi/4.8.3/../../../../arm-none-eabi/lib/armv7-m/crt0.o
_malloc_r                                         c:/users/teamuis/appdata/local/arduino15/packages/arduino/tools/arm-none-eabi-gcc/4.8.3-2014q1/bin/../lib/gcc/arm-none-eabi/4.8.3/../../../../arm-none-eabi/lib/armv7-m\libg.a(lib_a-mallocr.o)
                                                  c:/users/teamuis/appdata/local/arduino15/packages/arduino/tools/arm-none-eabi-gcc/4.8.3-2014q1/bin/../lib/gcc/arm-none-eabi/4.8.3/../../../../arm-none-eabi/lib/armv7-m\libg.a(lib_a-signal.o)
                                                  c:/users/teamuis/appdata/local/arduino15/packages/arduino/tools/arm-none-eabi-gcc/4.8.3-2014q1/bin/../lib/gcc/arm-none-eabi/4.8.3/../../../../arm-none-eabi/lib/armv7-m\libg.a(lib_a-reallocr.o)
                                                  c:/users/teamuis/appdata/local/arduino15/packages/arduino/tools/arm-none-eabi-gcc/4.8.3-2014q1/bin/../lib/gcc/arm-none-eabi/4.8.3/../../../../arm-none-eabi/lib/armv7-m\libg.a(lib_a-makebuf.o)
                                                  c:/users/teamuis/appdata/local/arduino15/packages/arduino/tools/arm-none-eabi-gcc/4.8.3-2014q1/bin/../lib/gcc/arm-none-eabi/4.8.3/../../../../arm-none-eabi/lib/armv7-m\libg.a(lib_a-fvwrite.o)
                                                  c:/users/teamuis/appdata/local/arduino15/packages/arduino/tools/arm-none-eabi-gcc/4.8.3-2014q1/bin/../lib/gcc/arm-none-eabi/4.8.3/../../../../arm-none-eabi/lib/armv7-m\libg.a(lib_a-findfp.o)
_malloc_trim_r                                    c:/users/teamuis/appdata/local/arduino15/packages/arduino/tools/arm-none-eabi-gcc/4.8.3-2014q1/bin/../lib/gcc/arm-none-eabi/4.8.3/../../../../arm-none-eabi/lib/armv7-m\libg.a(lib_a-freer.o)
_raise_r                                          c:/users/teamuis/appdata/local/arduino15/packages/arduino/tools/arm-none-eabi-gcc/4.8.3-2014q1/bin/../lib/gcc/arm-none-eabi/4.8.3/../../../../arm-none-eabi/lib/armv7-m\libg.a(lib_a-signal.o)
_read                                             C:\Users\TeamUiS\AppData\Local\Temp\VMBuilds\Circulation\arduino_due_x_dbg\Release/core.a(syscalls_sam3.c.o)
                                                  c:/users/teamuis/appdata/local/arduino15/packages/arduino/tools/arm-none-eabi-gcc/4.8.3-2014q1/bin/../lib/gcc/arm-none-eabi/4.8.3/../../../../arm-none-eabi/lib/armv7-m\libg.a(lib_a-readr.o)
_read_r                                           c:/users/teamuis/appdata/local/arduino15/packages/arduino/tools/arm-none-eabi-gcc/4.8.3-2014q1/bin/../lib/gcc/arm-none-eabi/4.8.3/../../../../arm-none-eabi/lib/armv7-m\libg.a(lib_a-readr.o)
                                                  c:/users/teamuis/appdata/local/arduino15/packages/arduino/tools/arm-none-eabi-gcc/4.8.3-2014q1/bin/../lib/gcc/arm-none-eabi/4.8.3/../../../../arm-none-eabi/lib/armv7-m\libg.a(lib_a-stdio.o)
_realloc_r                                        c:/users/teamuis/appdata/local/arduino15/packages/arduino/tools/arm-none-eabi-gcc/4.8.3-2014q1/bin/../lib/gcc/arm-none-eabi/4.8.3/../../../../arm-none-eabi/lib/armv7-m\libg.a(lib_a-reallocr.o)
                                                  c:/users/teamuis/appdata/local/arduino15/packages/arduino/tools/arm-none-eabi-gcc/4.8.3-2014q1/bin/../lib/gcc/arm-none-eabi/4.8.3/../../../../arm-none-eabi/lib/armv7-m\libg.a(lib_a-fvwrite.o)
_reclaim_reent                                    c:/users/teamuis/appdata/local/arduino15/packages/arduino/tools/arm-none-eabi-gcc/4.8.3-2014q1/bin/../lib/gcc/arm-none-eabi/4.8.3/../../../../arm-none-eabi/lib/armv7-m\libg.a(lib_a-reent.o)
_sbrk                                             C:\Users\TeamUiS\AppData\Local\Temp\VMBuilds\Circulation\arduino_due_x_dbg\Release/core.a(syscalls_sam3.c.o)
                                                  c:/users/teamuis/appdata/local/arduino15/packages/arduino/tools/arm-none-eabi-gcc/4.8.3-2014q1/bin/../lib/gcc/arm-none-eabi/4.8.3/../../../../arm-none-eabi/lib/armv7-m\libg.a(lib_a-sbrkr.o)
_sbrk_r                                           c:/users/teamuis/appdata/local/arduino15/packages/arduino/tools/arm-none-eabi-gcc/4.8.3-2014q1/bin/../lib/gcc/arm-none-eabi/4.8.3/../../../../arm-none-eabi/lib/armv7-m\libg.a(lib_a-sbrkr.o)
                                                  c:/users/teamuis/appdata/local/arduino15/packages/arduino/tools/arm-none-eabi-gcc/4.8.3-2014q1/bin/../lib/gcc/arm-none-eabi/4.8.3/../../../../arm-none-eabi/lib/armv7-m\libg.a(lib_a-mallocr.o)
                                                  c:/users/teamuis/appdata/local/arduino15/packages/arduino/tools/arm-none-eabi-gcc/4.8.3-2014q1/bin/../lib/gcc/arm-none-eabi/4.8.3/../../../../arm-none-eabi/lib/armv7-m\libg.a(lib_a-freer.o)
_serialPeek                                       C:\Users\TeamUiS\AppData\Local\Temp\VMBuilds\Circulation\arduino_due_x_dbg\Release/core.a(CDC.cpp.o)
_setlocale_r                                      c:/users/teamuis/appdata/local/arduino15/packages/arduino/tools/arm-none-eabi-gcc/4.8.3-2014q1/bin/../lib/gcc/arm-none-eabi/4.8.3/../../../../arm-none-eabi/lib/armv7-m\libg.a(lib_a-locale.o)
_sfixed                                           C:\Users\TeamUiS\AppData\Local\arduino15\packages\arduino\hardware\sam\1.6.11\variants\arduino_due_x/libsam_sam3x8e_gcc_rel.a(startup_sam3xa.o)
_signal_r                                         c:/users/teamuis/appdata/local/arduino15/packages/arduino/tools/arm-none-eabi-gcc/4.8.3-2014q1/bin/../lib/gcc/arm-none-eabi/4.8.3/../../../../arm-none-eabi/lib/armv7-m\libg.a(lib_a-signal.o)
_srelocate                                        C:\Users\TeamUiS\AppData\Local\arduino15\packages\arduino\hardware\sam\1.6.11\variants\arduino_due_x/libsam_sam3x8e_gcc_rel.a(startup_sam3xa.o)
_start                                            c:/users/teamuis/appdata/local/arduino15/packages/arduino/tools/arm-none-eabi-gcc/4.8.3-2014q1/bin/../lib/gcc/arm-none-eabi/4.8.3/../../../../arm-none-eabi/lib/armv7-m/crt0.o
_szero                                            C:\Users\TeamUiS\AppData\Local\arduino15\packages\arduino\hardware\sam\1.6.11\variants\arduino_due_x/libsam_sam3x8e_gcc_rel.a(startup_sam3xa.o)
_usbConfiguration                                 C:\Users\TeamUiS\AppData\Local\Temp\VMBuilds\Circulation\arduino_due_x_dbg\Release/core.a(USBCore.cpp.o)
_usbInitialized                                   C:\Users\TeamUiS\AppData\Local\Temp\VMBuilds\Circulation\arduino_due_x_dbg\Release/core.a(USBCore.cpp.o)
_usbSetInterface                                  C:\Users\TeamUiS\AppData\Local\Temp\VMBuilds\Circulation\arduino_due_x_dbg\Release/core.a(USBCore.cpp.o)
_vfiprintf_r                                      c:/users/teamuis/appdata/local/arduino15/packages/arduino/tools/arm-none-eabi-gcc/4.8.3-2014q1/bin/../lib/gcc/arm-none-eabi/4.8.3/../../../../arm-none-eabi/lib/armv7-m\libg.a(lib_a-vfiprintf.o)
                                                  c:/users/teamuis/appdata/local/arduino15/packages/arduino/tools/arm-none-eabi-gcc/4.8.3-2014q1/bin/../lib/gcc/arm-none-eabi/4.8.3/../../../../arm-none-eabi/lib/armv7-m\libg.a(lib_a-iprintf.o)
                                                  c:/users/teamuis/appdata/local/arduino15/packages/arduino/tools/arm-none-eabi-gcc/4.8.3-2014q1/bin/../lib/gcc/arm-none-eabi/4.8.3/../../../../arm-none-eabi/lib/armv7-m\libg.a(lib_a-fiprintf.o)
_watchdogDefaultSetup                             C:\Users\TeamUiS\AppData\Local\Temp\VMBuilds\Circulation\arduino_due_x_dbg\Release/core.a(watchdog.cpp.o)
_wcrtomb_r                                        c:/users/teamuis/appdata/local/arduino15/packages/arduino/tools/arm-none-eabi-gcc/4.8.3-2014q1/bin/../lib/gcc/arm-none-eabi/4.8.3/../../../../arm-none-eabi/lib/armv7-m\libg.a(lib_a-wcrtomb.o)
                                                  c:/users/teamuis/appdata/local/arduino15/packages/arduino/tools/arm-none-eabi-gcc/4.8.3-2014q1/bin/../lib/gcc/arm-none-eabi/4.8.3/../../../../arm-none-eabi/lib/armv7-m\libg.a(lib_a-fputwc.o)
_wctomb_r                                         c:/users/teamuis/appdata/local/arduino15/packages/arduino/tools/arm-none-eabi-gcc/4.8.3-2014q1/bin/../lib/gcc/arm-none-eabi/4.8.3/../../../../arm-none-eabi/lib/armv7-m\libg.a(lib_a-wctomb_r.o)
_write                                            C:\Users\TeamUiS\AppData\Local\Temp\VMBuilds\Circulation\arduino_due_x_dbg\Release/core.a(syscalls_sam3.c.o)
                                                  c:/users/teamuis/appdata/local/arduino15/packages/arduino/tools/arm-none-eabi-gcc/4.8.3-2014q1/bin/../lib/gcc/arm-none-eabi/4.8.3/../../../../arm-none-eabi/lib/armv7-m\libg.a(lib_a-writer.o)
_write_r                                          c:/users/teamuis/appdata/local/arduino15/packages/arduino/tools/arm-none-eabi-gcc/4.8.3-2014q1/bin/../lib/gcc/arm-none-eabi/4.8.3/../../../../arm-none-eabi/lib/armv7-m\libg.a(lib_a-writer.o)
                                                  c:/users/teamuis/appdata/local/arduino15/packages/arduino/tools/arm-none-eabi-gcc/4.8.3-2014q1/bin/../lib/gcc/arm-none-eabi/4.8.3/../../../../arm-none-eabi/lib/armv7-m\libg.a(lib_a-stdio.o)
abort                                             c:/users/teamuis/appdata/local/arduino15/packages/arduino/tools/arm-none-eabi-gcc/4.8.3-2014q1/bin/../lib/gcc/arm-none-eabi/4.8.3/../../../../arm-none-eabi/lib/armv7-m\libg.a(lib_a-abort.o)
                                                  c:/users/teamuis/appdata/local/arduino15/packages/arduino/tools/arm-none-eabi-gcc/4.8.3-2014q1/bin/../lib/gcc/arm-none-eabi/4.8.3/../../../../arm-none-eabi/lib/armv7-m\libg.a(lib_a-assert.o)
adc_configure_power_save                          C:\Users\TeamUiS\AppData\Local\arduino15\packages\arduino\hardware\sam\1.6.11\variants\arduino_due_x/libsam_sam3x8e_gcc_rel.a(adc.o)
adc_configure_sequence                            C:\Users\TeamUiS\AppData\Local\arduino15\packages\arduino\hardware\sam\1.6.11\variants\arduino_due_x/libsam_sam3x8e_gcc_rel.a(adc.o)
adc_configure_timing                              C:\Users\TeamUiS\AppData\Local\arduino15\packages\arduino\hardware\sam\1.6.11\variants\arduino_due_x/libsam_sam3x8e_gcc_rel.a(adc.o)
                                                  C:\Users\TeamUiS\AppData\Local\Temp\VMBuilds\Circulation\arduino_due_x_dbg\Release\variant\variant.cpp.o
adc_configure_trigger                             C:\Users\TeamUiS\AppData\Local\arduino15\packages\arduino\hardware\sam\1.6.11\variants\arduino_due_x/libsam_sam3x8e_gcc_rel.a(adc.o)
                                                  C:\Users\TeamUiS\AppData\Local\Temp\VMBuilds\Circulation\arduino_due_x_dbg\Release\variant\variant.cpp.o
adc_disable_all_channel                           C:\Users\TeamUiS\AppData\Local\arduino15\packages\arduino\hardware\sam\1.6.11\variants\arduino_due_x/libsam_sam3x8e_gcc_rel.a(adc.o)
                                                  C:\Users\TeamUiS\AppData\Local\Temp\VMBuilds\Circulation\arduino_due_x_dbg\Release\variant\variant.cpp.o
adc_disable_anch                                  C:\Users\TeamUiS\AppData\Local\arduino15\packages\arduino\hardware\sam\1.6.11\variants\arduino_due_x/libsam_sam3x8e_gcc_rel.a(adc.o)
adc_disable_channel                               C:\Users\TeamUiS\AppData\Local\arduino15\packages\arduino\hardware\sam\1.6.11\variants\arduino_due_x/libsam_sam3x8e_gcc_rel.a(adc.o)
                                                  C:\Users\TeamUiS\AppData\Local\Temp\VMBuilds\Circulation\arduino_due_x_dbg\Release/core.a(wiring_digital.c.o)
                                                  C:\Users\TeamUiS\AppData\Local\Temp\VMBuilds\Circulation\arduino_due_x_dbg\Release/core.a(wiring_analog.c.o)
adc_disable_channel_differential_input            C:\Users\TeamUiS\AppData\Local\arduino15\packages\arduino\hardware\sam\1.6.11\variants\arduino_due_x/libsam_sam3x8e_gcc_rel.a(adc.o)
adc_disable_channel_input_offset                  C:\Users\TeamUiS\AppData\Local\arduino15\packages\arduino\hardware\sam\1.6.11\variants\arduino_due_x/libsam_sam3x8e_gcc_rel.a(adc.o)
adc_disable_interrupt                             C:\Users\TeamUiS\AppData\Local\arduino15\packages\arduino\hardware\sam\1.6.11\variants\arduino_due_x/libsam_sam3x8e_gcc_rel.a(adc.o)
                                                  C:\Users\TeamUiS\AppData\Local\Temp\VMBuilds\Circulation\arduino_due_x_dbg\Release\variant\variant.cpp.o
adc_disable_tag                                   C:\Users\TeamUiS\AppData\Local\arduino15\packages\arduino\hardware\sam\1.6.11\variants\arduino_due_x/libsam_sam3x8e_gcc_rel.a(adc.o)
adc_disable_ts                                    C:\Users\TeamUiS\AppData\Local\arduino15\packages\arduino\hardware\sam\1.6.11\variants\arduino_due_x/libsam_sam3x8e_gcc_rel.a(adc.o)
adc_enable_all_channel                            C:\Users\TeamUiS\AppData\Local\arduino15\packages\arduino\hardware\sam\1.6.11\variants\arduino_due_x/libsam_sam3x8e_gcc_rel.a(adc.o)
adc_enable_anch                                   C:\Users\TeamUiS\AppData\Local\arduino15\packages\arduino\hardware\sam\1.6.11\variants\arduino_due_x/libsam_sam3x8e_gcc_rel.a(adc.o)
adc_enable_channel                                C:\Users\TeamUiS\AppData\Local\arduino15\packages\arduino\hardware\sam\1.6.11\variants\arduino_due_x/libsam_sam3x8e_gcc_rel.a(adc.o)
                                                  C:\Users\TeamUiS\AppData\Local\Temp\VMBuilds\Circulation\arduino_due_x_dbg\Release/core.a(wiring_analog.c.o)
adc_enable_channel_differential_input             C:\Users\TeamUiS\AppData\Local\arduino15\packages\arduino\hardware\sam\1.6.11\variants\arduino_due_x/libsam_sam3x8e_gcc_rel.a(adc.o)
adc_enable_channel_input_offset                   C:\Users\TeamUiS\AppData\Local\arduino15\packages\arduino\hardware\sam\1.6.11\variants\arduino_due_x/libsam_sam3x8e_gcc_rel.a(adc.o)
adc_enable_interrupt                              C:\Users\TeamUiS\AppData\Local\arduino15\packages\arduino\hardware\sam\1.6.11\variants\arduino_due_x/libsam_sam3x8e_gcc_rel.a(adc.o)
adc_enable_tag                                    C:\Users\TeamUiS\AppData\Local\arduino15\packages\arduino\hardware\sam\1.6.11\variants\arduino_due_x/libsam_sam3x8e_gcc_rel.a(adc.o)
adc_enable_ts                                     C:\Users\TeamUiS\AppData\Local\arduino15\packages\arduino\hardware\sam\1.6.11\variants\arduino_due_x/libsam_sam3x8e_gcc_rel.a(adc.o)
adc_get_actual_adc_clock                          C:\Users\TeamUiS\AppData\Local\arduino15\packages\arduino\hardware\sam\1.6.11\variants\arduino_due_x/libsam_sam3x8e_gcc_rel.a(adc.o)
adc_get_channel_status                            C:\Users\TeamUiS\AppData\Local\arduino15\packages\arduino\hardware\sam\1.6.11\variants\arduino_due_x/libsam_sam3x8e_gcc_rel.a(adc.o)
                                                  C:\Users\TeamUiS\AppData\Local\Temp\VMBuilds\Circulation\arduino_due_x_dbg\Release/core.a(wiring_analog.c.o)
adc_get_channel_value                             C:\Users\TeamUiS\AppData\Local\arduino15\packages\arduino\hardware\sam\1.6.11\variants\arduino_due_x/libsam_sam3x8e_gcc_rel.a(adc.o)
adc_get_comparison_mode                           C:\Users\TeamUiS\AppData\Local\arduino15\packages\arduino\hardware\sam\1.6.11\variants\arduino_due_x/libsam_sam3x8e_gcc_rel.a(adc.o)
adc_get_interrupt_mask                            C:\Users\TeamUiS\AppData\Local\arduino15\packages\arduino\hardware\sam\1.6.11\variants\arduino_due_x/libsam_sam3x8e_gcc_rel.a(adc.o)
adc_get_latest_value                              C:\Users\TeamUiS\AppData\Local\arduino15\packages\arduino\hardware\sam\1.6.11\variants\arduino_due_x/libsam_sam3x8e_gcc_rel.a(adc.o)
                                                  C:\Users\TeamUiS\AppData\Local\Temp\VMBuilds\Circulation\arduino_due_x_dbg\Release/core.a(wiring_analog.c.o)
adc_get_overrun_status                            C:\Users\TeamUiS\AppData\Local\arduino15\packages\arduino\hardware\sam\1.6.11\variants\arduino_due_x/libsam_sam3x8e_gcc_rel.a(adc.o)
adc_get_pdc_base                                  C:\Users\TeamUiS\AppData\Local\arduino15\packages\arduino\hardware\sam\1.6.11\variants\arduino_due_x/libsam_sam3x8e_gcc_rel.a(adc.o)
adc_get_status                                    C:\Users\TeamUiS\AppData\Local\arduino15\packages\arduino\hardware\sam\1.6.11\variants\arduino_due_x/libsam_sam3x8e_gcc_rel.a(adc.o)
                                                  C:\Users\TeamUiS\AppData\Local\Temp\VMBuilds\Circulation\arduino_due_x_dbg\Release/core.a(wiring_analog.c.o)
adc_get_tag                                       C:\Users\TeamUiS\AppData\Local\arduino15\packages\arduino\hardware\sam\1.6.11\variants\arduino_due_x/libsam_sam3x8e_gcc_rel.a(adc.o)
adc_get_writeprotect_status                       C:\Users\TeamUiS\AppData\Local\arduino15\packages\arduino\hardware\sam\1.6.11\variants\arduino_due_x/libsam_sam3x8e_gcc_rel.a(adc.o)
adc_init                                          C:\Users\TeamUiS\AppData\Local\arduino15\packages\arduino\hardware\sam\1.6.11\variants\arduino_due_x/libsam_sam3x8e_gcc_rel.a(adc.o)
                                                  C:\Users\TeamUiS\AppData\Local\Temp\VMBuilds\Circulation\arduino_due_x_dbg\Release\variant\variant.cpp.o
adc_set_bias_current                              C:\Users\TeamUiS\AppData\Local\arduino15\packages\arduino\hardware\sam\1.6.11\variants\arduino_due_x/libsam_sam3x8e_gcc_rel.a(adc.o)
adc_set_channel_input_gain                        C:\Users\TeamUiS\AppData\Local\arduino15\packages\arduino\hardware\sam\1.6.11\variants\arduino_due_x/libsam_sam3x8e_gcc_rel.a(adc.o)
adc_set_comparison_channel                        C:\Users\TeamUiS\AppData\Local\arduino15\packages\arduino\hardware\sam\1.6.11\variants\arduino_due_x/libsam_sam3x8e_gcc_rel.a(adc.o)
adc_set_comparison_mode                           C:\Users\TeamUiS\AppData\Local\arduino15\packages\arduino\hardware\sam\1.6.11\variants\arduino_due_x/libsam_sam3x8e_gcc_rel.a(adc.o)
adc_set_comparison_window                         C:\Users\TeamUiS\AppData\Local\arduino15\packages\arduino\hardware\sam\1.6.11\variants\arduino_due_x/libsam_sam3x8e_gcc_rel.a(adc.o)
adc_set_resolution                                C:\Users\TeamUiS\AppData\Local\arduino15\packages\arduino\hardware\sam\1.6.11\variants\arduino_due_x/libsam_sam3x8e_gcc_rel.a(adc.o)
adc_set_writeprotect                              C:\Users\TeamUiS\AppData\Local\arduino15\packages\arduino\hardware\sam\1.6.11\variants\arduino_due_x/libsam_sam3x8e_gcc_rel.a(adc.o)
adc_start                                         C:\Users\TeamUiS\AppData\Local\arduino15\packages\arduino\hardware\sam\1.6.11\variants\arduino_due_x/libsam_sam3x8e_gcc_rel.a(adc.o)
                                                  C:\Users\TeamUiS\AppData\Local\Temp\VMBuilds\Circulation\arduino_due_x_dbg\Release/core.a(wiring_analog.c.o)
adc_start_sequencer                               C:\Users\TeamUiS\AppData\Local\arduino15\packages\arduino\hardware\sam\1.6.11\variants\arduino_due_x/libsam_sam3x8e_gcc_rel.a(adc.o)
adc_stop                                          C:\Users\TeamUiS\AppData\Local\arduino15\packages\arduino\hardware\sam\1.6.11\variants\arduino_due_x/libsam_sam3x8e_gcc_rel.a(adc.o)
adc_stop_sequencer                                C:\Users\TeamUiS\AppData\Local\arduino15\packages\arduino\hardware\sam\1.6.11\variants\arduino_due_x/libsam_sam3x8e_gcc_rel.a(adc.o)
analogOutputInit                                  C:\Users\TeamUiS\AppData\Local\Temp\VMBuilds\Circulation\arduino_due_x_dbg\Release/core.a(wiring_analog.c.o)
                                                  C:\Users\TeamUiS\AppData\Local\Temp\VMBuilds\Circulation\arduino_due_x_dbg\Release\variant\variant.cpp.o
analogRead                                        C:\Users\TeamUiS\AppData\Local\Temp\VMBuilds\Circulation\arduino_due_x_dbg\Release/core.a(wiring_analog.c.o)
                                                  C:\Users\TeamUiS\AppData\Local\Temp\VMBuilds\Circulation\arduino_due_x_dbg\Release\Circulation.cpp.o
analogReadResolution                              C:\Users\TeamUiS\AppData\Local\Temp\VMBuilds\Circulation\arduino_due_x_dbg\Release/core.a(wiring_analog.c.o)
analogReference                                   C:\Users\TeamUiS\AppData\Local\Temp\VMBuilds\Circulation\arduino_due_x_dbg\Release/core.a(wiring_analog.c.o)
analogWrite                                       C:\Users\TeamUiS\AppData\Local\Temp\VMBuilds\Circulation\arduino_due_x_dbg\Release/core.a(wiring_analog.c.o)
analogWriteResolution                             C:\Users\TeamUiS\AppData\Local\Temp\VMBuilds\Circulation\arduino_due_x_dbg\Release/core.a(wiring_analog.c.o)
analog_reference                                  C:\Users\TeamUiS\AppData\Local\Temp\VMBuilds\Circulation\arduino_due_x_dbg\Release/core.a(wiring_analog.c.o)
atexit                                            c:/users/teamuis/appdata/local/arduino15/packages/arduino/tools/arm-none-eabi-gcc/4.8.3-2014q1/bin/../lib/gcc/arm-none-eabi/4.8.3/../../../../arm-none-eabi/lib/armv7-m\libg.a(lib_a-atexit.o)
                                                  c:/users/teamuis/appdata/local/arduino15/packages/arduino/tools/arm-none-eabi-gcc/4.8.3-2014q1/bin/../lib/gcc/arm-none-eabi/4.8.3/../../../../arm-none-eabi/lib/armv7-m\libg.a(lib_a-__call_atexit.o)
                                                  c:/users/teamuis/appdata/local/arduino15/packages/arduino/tools/arm-none-eabi-gcc/4.8.3-2014q1/bin/../lib/gcc/arm-none-eabi/4.8.3/../../../../arm-none-eabi/lib/armv7-m/crt0.o
banzai                                            C:\Users\TeamUiS\AppData\Local\Temp\VMBuilds\Circulation\arduino_due_x_dbg\Release/core.a(Reset.cpp.o)
cancelReset                                       C:\Users\TeamUiS\AppData\Local\Temp\VMBuilds\Circulation\arduino_due_x_dbg\Release/core.a(Reset.cpp.o)
                                                  C:\Users\TeamUiS\AppData\Local\Temp\VMBuilds\Circulation\arduino_due_x_dbg\Release/core.a(CDC.cpp.o)
cdc_rx_buffer                                     C:\Users\TeamUiS\AppData\Local\Temp\VMBuilds\Circulation\arduino_due_x_dbg\Release/core.a(CDC.cpp.o)
cleanup_glue                                      c:/users/teamuis/appdata/local/arduino15/packages/arduino/tools/arm-none-eabi-gcc/4.8.3-2014q1/bin/../lib/gcc/arm-none-eabi/4.8.3/../../../../arm-none-eabi/lib/armv7-m\libg.a(lib_a-reent.o)
currentTime                                       C:\Users\TeamUiS\AppData\Local\Temp\VMBuilds\Circulation\arduino_due_x_dbg\Release\Circulation.cpp.o
dacc_disable_channel                              C:\Users\TeamUiS\AppData\Local\arduino15\packages\arduino\hardware\sam\1.6.11\variants\arduino_due_x/libsam_sam3x8e_gcc_rel.a(dacc.o)
dacc_disable_interrupt                            C:\Users\TeamUiS\AppData\Local\arduino15\packages\arduino\hardware\sam\1.6.11\variants\arduino_due_x/libsam_sam3x8e_gcc_rel.a(dacc.o)
dacc_disable_trigger                              C:\Users\TeamUiS\AppData\Local\arduino15\packages\arduino\hardware\sam\1.6.11\variants\arduino_due_x/libsam_sam3x8e_gcc_rel.a(dacc.o)
dacc_enable_channel                               C:\Users\TeamUiS\AppData\Local\arduino15\packages\arduino\hardware\sam\1.6.11\variants\arduino_due_x/libsam_sam3x8e_gcc_rel.a(dacc.o)
                                                  C:\Users\TeamUiS\AppData\Local\Temp\VMBuilds\Circulation\arduino_due_x_dbg\Release/core.a(wiring_analog.c.o)
dacc_enable_flexible_selection                    C:\Users\TeamUiS\AppData\Local\arduino15\packages\arduino\hardware\sam\1.6.11\variants\arduino_due_x/libsam_sam3x8e_gcc_rel.a(dacc.o)
dacc_enable_interrupt                             C:\Users\TeamUiS\AppData\Local\arduino15\packages\arduino\hardware\sam\1.6.11\variants\arduino_due_x/libsam_sam3x8e_gcc_rel.a(dacc.o)
dacc_get_analog_control                           C:\Users\TeamUiS\AppData\Local\arduino15\packages\arduino\hardware\sam\1.6.11\variants\arduino_due_x/libsam_sam3x8e_gcc_rel.a(dacc.o)
dacc_get_channel_status                           C:\Users\TeamUiS\AppData\Local\arduino15\packages\arduino\hardware\sam\1.6.11\variants\arduino_due_x/libsam_sam3x8e_gcc_rel.a(dacc.o)
                                                  C:\Users\TeamUiS\AppData\Local\Temp\VMBuilds\Circulation\arduino_due_x_dbg\Release/core.a(wiring_analog.c.o)
dacc_get_interrupt_mask                           C:\Users\TeamUiS\AppData\Local\arduino15\packages\arduino\hardware\sam\1.6.11\variants\arduino_due_x/libsam_sam3x8e_gcc_rel.a(dacc.o)
dacc_get_interrupt_status                         C:\Users\TeamUiS\AppData\Local\arduino15\packages\arduino\hardware\sam\1.6.11\variants\arduino_due_x/libsam_sam3x8e_gcc_rel.a(dacc.o)
                                                  C:\Users\TeamUiS\AppData\Local\Temp\VMBuilds\Circulation\arduino_due_x_dbg\Release/core.a(wiring_analog.c.o)
dacc_get_pdc_base                                 C:\Users\TeamUiS\AppData\Local\arduino15\packages\arduino\hardware\sam\1.6.11\variants\arduino_due_x/libsam_sam3x8e_gcc_rel.a(dacc.o)
dacc_get_writeprotect_status                      C:\Users\TeamUiS\AppData\Local\arduino15\packages\arduino\hardware\sam\1.6.11\variants\arduino_due_x/libsam_sam3x8e_gcc_rel.a(dacc.o)
dacc_reset                                        C:\Users\TeamUiS\AppData\Local\arduino15\packages\arduino\hardware\sam\1.6.11\variants\arduino_due_x/libsam_sam3x8e_gcc_rel.a(dacc.o)
                                                  C:\Users\TeamUiS\AppData\Local\Temp\VMBuilds\Circulation\arduino_due_x_dbg\Release/core.a(wiring_analog.c.o)
dacc_set_analog_control                           C:\Users\TeamUiS\AppData\Local\arduino15\packages\arduino\hardware\sam\1.6.11\variants\arduino_due_x/libsam_sam3x8e_gcc_rel.a(dacc.o)
                                                  C:\Users\TeamUiS\AppData\Local\Temp\VMBuilds\Circulation\arduino_due_x_dbg\Release/core.a(wiring_analog.c.o)
dacc_set_channel_selection                        C:\Users\TeamUiS\AppData\Local\arduino15\packages\arduino\hardware\sam\1.6.11\variants\arduino_due_x/libsam_sam3x8e_gcc_rel.a(dacc.o)
                                                  C:\Users\TeamUiS\AppData\Local\Temp\VMBuilds\Circulation\arduino_due_x_dbg\Release/core.a(wiring_analog.c.o)
dacc_set_power_save                               C:\Users\TeamUiS\AppData\Local\arduino15\packages\arduino\hardware\sam\1.6.11\variants\arduino_due_x/libsam_sam3x8e_gcc_rel.a(dacc.o)
                                                  C:\Users\TeamUiS\AppData\Local\Temp\VMBuilds\Circulation\arduino_due_x_dbg\Release/core.a(wiring_analog.c.o)
dacc_set_timing                                   C:\Users\TeamUiS\AppData\Local\arduino15\packages\arduino\hardware\sam\1.6.11\variants\arduino_due_x/libsam_sam3x8e_gcc_rel.a(dacc.o)
                                                  C:\Users\TeamUiS\AppData\Local\Temp\VMBuilds\Circulation\arduino_due_x_dbg\Release/core.a(wiring_analog.c.o)
dacc_set_transfer_mode                            C:\Users\TeamUiS\AppData\Local\arduino15\packages\arduino\hardware\sam\1.6.11\variants\arduino_due_x/libsam_sam3x8e_gcc_rel.a(dacc.o)
                                                  C:\Users\TeamUiS\AppData\Local\Temp\VMBuilds\Circulation\arduino_due_x_dbg\Release/core.a(wiring_analog.c.o)
dacc_set_trigger                                  C:\Users\TeamUiS\AppData\Local\arduino15\packages\arduino\hardware\sam\1.6.11\variants\arduino_due_x/libsam_sam3x8e_gcc_rel.a(dacc.o)
dacc_set_writeprotect                             C:\Users\TeamUiS\AppData\Local\arduino15\packages\arduino\hardware\sam\1.6.11\variants\arduino_due_x/libsam_sam3x8e_gcc_rel.a(dacc.o)
dacc_write_conversion_data                        C:\Users\TeamUiS\AppData\Local\arduino15\packages\arduino\hardware\sam\1.6.11\variants\arduino_due_x/libsam_sam3x8e_gcc_rel.a(dacc.o)
                                                  C:\Users\TeamUiS\AppData\Local\Temp\VMBuilds\Circulation\arduino_due_x_dbg\Release/core.a(wiring_analog.c.o)
dataSampleInterval                                C:\Users\TeamUiS\AppData\Local\Temp\VMBuilds\Circulation\arduino_due_x_dbg\Release\Circulation.cpp.o
delay                                             C:\Users\TeamUiS\AppData\Local\Temp\VMBuilds\Circulation\arduino_due_x_dbg\Release/core.a(wiring.c.o)
                                                  C:\Users\TeamUiS\AppData\Local\Temp\VMBuilds\Circulation\arduino_due_x_dbg\Release/core.a(CDC.cpp.o)
                                                  C:\Users\TeamUiS\AppData\Local\Temp\VMBuilds\Circulation\arduino_due_x_dbg\Release/core.a(USBCore.cpp.o)
                                                  C:\Users\TeamUiS\AppData\Local\Temp\VMBuilds\Circulation\arduino_due_x_dbg\Release/core.a(main.cpp.o)
                                                  C:\Users\TeamUiS\AppData\Local\Temp\VMBuilds\Circulation\arduino_due_x_dbg\Release\Circulation.cpp.o
digitalRead                                       C:\Users\TeamUiS\AppData\Local\Temp\VMBuilds\Circulation\arduino_due_x_dbg\Release/core.a(wiring_digital.c.o)
digitalWrite                                      C:\Users\TeamUiS\AppData\Local\Temp\VMBuilds\Circulation\arduino_due_x_dbg\Release/core.a(wiring_digital.c.o)
                                                  C:\Users\TeamUiS\AppData\Local\Temp\VMBuilds\Circulation\arduino_due_x_dbg\Release/core.a(wiring_analog.c.o)
                                                  C:\Users\TeamUiS\AppData\Local\Temp\VMBuilds\Circulation\arduino_due_x_dbg\Release\variant\variant.cpp.o
                                                  C:\Users\TeamUiS\AppData\Local\Temp\VMBuilds\Circulation\arduino_due_x_dbg\Release\Circulation.cpp.o
elapsed                                           C:\Users\TeamUiS\AppData\Local\Temp\VMBuilds\Circulation\arduino_due_x_dbg\Release\Circulation.cpp.o
endOfLoopTime                                     C:\Users\TeamUiS\AppData\Local\Temp\VMBuilds\Circulation\arduino_due_x_dbg\Release\Circulation.cpp.o
errno                                             c:/users/teamuis/appdata/local/arduino15/packages/arduino/tools/arm-none-eabi-gcc/4.8.3-2014q1/bin/../lib/gcc/arm-none-eabi/4.8.3/../../../../arm-none-eabi/lib/armv7-m\libg.a(lib_a-reent.o)
                                                  c:/users/teamuis/appdata/local/arduino15/packages/arduino/tools/arm-none-eabi-gcc/4.8.3-2014q1/bin/../lib/gcc/arm-none-eabi/4.8.3/../../../../arm-none-eabi/lib/armv7-m\libg.a(lib_a-readr.o)
                                                  c:/users/teamuis/appdata/local/arduino15/packages/arduino/tools/arm-none-eabi-gcc/4.8.3-2014q1/bin/../lib/gcc/arm-none-eabi/4.8.3/../../../../arm-none-eabi/lib/armv7-m\libg.a(lib_a-lseekr.o)
                                                  c:/users/teamuis/appdata/local/arduino15/packages/arduino/tools/arm-none-eabi-gcc/4.8.3-2014q1/bin/../lib/gcc/arm-none-eabi/4.8.3/../../../../arm-none-eabi/lib/armv7-m\libg.a(lib_a-isattyr.o)
                                                  c:/users/teamuis/appdata/local/arduino15/packages/arduino/tools/arm-none-eabi-gcc/4.8.3-2014q1/bin/../lib/gcc/arm-none-eabi/4.8.3/../../../../arm-none-eabi/lib/armv7-m\libg.a(lib_a-fstatr.o)
                                                  c:/users/teamuis/appdata/local/arduino15/packages/arduino/tools/arm-none-eabi-gcc/4.8.3-2014q1/bin/../lib/gcc/arm-none-eabi/4.8.3/../../../../arm-none-eabi/lib/armv7-m\libg.a(lib_a-closer.o)
                                                  c:/users/teamuis/appdata/local/arduino15/packages/arduino/tools/arm-none-eabi-gcc/4.8.3-2014q1/bin/../lib/gcc/arm-none-eabi/4.8.3/../../../../arm-none-eabi/lib/armv7-m\libg.a(lib_a-writer.o)
                                                  c:/users/teamuis/appdata/local/arduino15/packages/arduino/tools/arm-none-eabi-gcc/4.8.3-2014q1/bin/../lib/gcc/arm-none-eabi/4.8.3/../../../../arm-none-eabi/lib/armv7-m\libg.a(lib_a-signalr.o)
                                                  c:/users/teamuis/appdata/local/arduino15/packages/arduino/tools/arm-none-eabi-gcc/4.8.3-2014q1/bin/../lib/gcc/arm-none-eabi/4.8.3/../../../../arm-none-eabi/lib/armv7-m\libg.a(lib_a-sbrkr.o)
exception_table                                   C:\Users\TeamUiS\AppData\Local\arduino15\packages\arduino\hardware\sam\1.6.11\variants\arduino_due_x/libsam_sam3x8e_gcc_rel.a(startup_sam3xa.o)
exit                                              c:/users/teamuis/appdata/local/arduino15/packages/arduino/tools/arm-none-eabi-gcc/4.8.3-2014q1/bin/../lib/gcc/arm-none-eabi/4.8.3/../../../../arm-none-eabi/lib/armv7-m\libg.a(lib_a-exit.o)
                                                  c:/users/teamuis/appdata/local/arduino15/packages/arduino/tools/arm-none-eabi-gcc/4.8.3-2014q1/bin/../lib/gcc/arm-none-eabi/4.8.3/../../../../arm-none-eabi/lib/armv7-m/crt0.o
fclose                                            c:/users/teamuis/appdata/local/arduino15/packages/arduino/tools/arm-none-eabi-gcc/4.8.3-2014q1/bin/../lib/gcc/arm-none-eabi/4.8.3/../../../../arm-none-eabi/lib/armv7-m\libg.a(lib_a-fclose.o)
                                                  c:/users/teamuis/appdata/local/arduino15/packages/arduino/tools/arm-none-eabi-gcc/4.8.3-2014q1/bin/../lib/gcc/arm-none-eabi/4.8.3/../../../../arm-none-eabi/lib/armv7-m\libg.a(lib_a-findfp.o)
fflush                                            c:/users/teamuis/appdata/local/arduino15/packages/arduino/tools/arm-none-eabi-gcc/4.8.3-2014q1/bin/../lib/gcc/arm-none-eabi/4.8.3/../../../../arm-none-eabi/lib/armv7-m\libg.a(lib_a-fflush.o)
filterTimeConstant                                C:\Users\TeamUiS\AppData\Local\Temp\VMBuilds\Circulation\arduino_due_x_dbg\Release\Circulation.cpp.o
filtered_old                                      C:\Users\TeamUiS\AppData\Local\Temp\VMBuilds\Circulation\arduino_due_x_dbg\Release\Circulation.cpp.o
fiprintf                                          c:/users/teamuis/appdata/local/arduino15/packages/arduino/tools/arm-none-eabi-gcc/4.8.3-2014q1/bin/../lib/gcc/arm-none-eabi/4.8.3/../../../../arm-none-eabi/lib/armv7-m\libg.a(lib_a-fiprintf.o)
                                                  c:/users/teamuis/appdata/local/arduino15/packages/arduino/tools/arm-none-eabi-gcc/4.8.3-2014q1/bin/../lib/gcc/arm-none-eabi/4.8.3/../../../../arm-none-eabi/lib/armv7-m\libg.a(lib_a-assert.o)
fputwc                                            c:/users/teamuis/appdata/local/arduino15/packages/arduino/tools/arm-none-eabi-gcc/4.8.3-2014q1/bin/../lib/gcc/arm-none-eabi/4.8.3/../../../../arm-none-eabi/lib/armv7-m\libg.a(lib_a-fputwc.o)
free                                              c:/users/teamuis/appdata/local/arduino15/packages/arduino/tools/arm-none-eabi-gcc/4.8.3-2014q1/bin/../lib/gcc/arm-none-eabi/4.8.3/../../../../arm-none-eabi/lib/armv7-m\libg.a(lib_a-__call_atexit.o)
g_APinDescription                                 C:\Users\TeamUiS\AppData\Local\Temp\VMBuilds\Circulation\arduino_due_x_dbg\Release\variant\variant.cpp.o
                                                  C:\Users\TeamUiS\AppData\Local\Temp\VMBuilds\Circulation\arduino_due_x_dbg\Release/core.a(wiring_digital.c.o)
                                                  C:\Users\TeamUiS\AppData\Local\Temp\VMBuilds\Circulation\arduino_due_x_dbg\Release/core.a(wiring_analog.c.o)
g_interrupt_enabled                               C:\Users\TeamUiS\AppData\Local\arduino15\packages\arduino\hardware\sam\1.6.11\variants\arduino_due_x/libsam_sam3x8e_gcc_rel.a(interrupt_sam_nvic.o)
                                                  C:\Users\TeamUiS\AppData\Local\arduino15\packages\arduino\hardware\sam\1.6.11\variants\arduino_due_x/libsam_sam3x8e_gcc_rel.a(uotghs_device.o)
                                                  C:\Users\TeamUiS\AppData\Local\Temp\VMBuilds\Circulation\arduino_due_x_dbg\Release/core.a(USBCore.cpp.o)
g_pinStatus                                       C:\Users\TeamUiS\AppData\Local\Temp\VMBuilds\Circulation\arduino_due_x_dbg\Release\variant\variant.cpp.o
                                                  C:\Users\TeamUiS\AppData\Local\Temp\VMBuilds\Circulation\arduino_due_x_dbg\Release/core.a(wiring_digital.c.o)
                                                  C:\Users\TeamUiS\AppData\Local\Temp\VMBuilds\Circulation\arduino_due_x_dbg\Release/core.a(wiring_analog.c.o)
gpf_isr                                           C:\Users\TeamUiS\AppData\Local\arduino15\packages\arduino\hardware\sam\1.6.11\variants\arduino_due_x/libsam_sam3x8e_gcc_rel.a(uotghs.o)
                                                  C:\Users\TeamUiS\AppData\Local\arduino15\packages\arduino\hardware\sam\1.6.11\variants\arduino_due_x/libsam_sam3x8e_gcc_rel.a(uotghs_device.o)
hardware_init_hook                                c:/users/teamuis/appdata/local/arduino15/packages/arduino/tools/arm-none-eabi-gcc/4.8.3-2014q1/bin/../lib/gcc/arm-none-eabi/4.8.3/../../../../arm-none-eabi/lib/armv7-m/crt0.o
incomingOption                                    C:\Users\TeamUiS\AppData\Local\Temp\VMBuilds\Circulation\arduino_due_x_dbg\Release\Circulation.cpp.o
init                                              C:\Users\TeamUiS\AppData\Local\Temp\VMBuilds\Circulation\arduino_due_x_dbg\Release\variant\variant.cpp.o
                                                  C:\Users\TeamUiS\AppData\Local\Temp\VMBuilds\Circulation\arduino_due_x_dbg\Release/core.a(main.cpp.o)
initVariant                                       C:\Users\TeamUiS\AppData\Local\Temp\VMBuilds\Circulation\arduino_due_x_dbg\Release/core.a(main.cpp.o)
initiateReset                                     C:\Users\TeamUiS\AppData\Local\Temp\VMBuilds\Circulation\arduino_due_x_dbg\Release/core.a(Reset.cpp.o)
                                                  C:\Users\TeamUiS\AppData\Local\Temp\VMBuilds\Circulation\arduino_due_x_dbg\Release/core.a(CDC.cpp.o)
iprintf                                           c:/users/teamuis/appdata/local/arduino15/packages/arduino/tools/arm-none-eabi-gcc/4.8.3-2014q1/bin/../lib/gcc/arm-none-eabi/4.8.3/../../../../arm-none-eabi/lib/armv7-m\libg.a(lib_a-iprintf.o)
                                                  C:\Users\TeamUiS\AppData\Local\Temp\VMBuilds\Circulation\arduino_due_x_dbg\Release/core.a(syscalls_sam3.c.o)
kill                                              c:/users/teamuis/appdata/local/arduino15/packages/arduino/tools/arm-none-eabi-gcc/4.8.3-2014q1/bin/../lib/gcc/arm-none-eabi/4.8.3/../../../../arm-none-eabi/lib/armv7-m\libg.a(lib_a-syskill.o)
link                                              C:\Users\TeamUiS\AppData\Local\Temp\VMBuilds\Circulation\arduino_due_x_dbg\Release/core.a(syscalls_sam3.c.o)
localeconv                                        c:/users/teamuis/appdata/local/arduino15/packages/arduino/tools/arm-none-eabi-gcc/4.8.3-2014q1/bin/../lib/gcc/arm-none-eabi/4.8.3/../../../../arm-none-eabi/lib/armv7-m\libg.a(lib_a-locale.o)
loop                                              C:\Users\TeamUiS\AppData\Local\Temp\VMBuilds\Circulation\arduino_due_x_dbg\Release\Circulation.cpp.o
                                                  C:\Users\TeamUiS\AppData\Local\Temp\VMBuilds\Circulation\arduino_due_x_dbg\Release/core.a(main.cpp.o)
lowpassfilter(int)                                C:\Users\TeamUiS\AppData\Local\Temp\VMBuilds\Circulation\arduino_due_x_dbg\Release\Circulation.cpp.o
m                                                 C:\Users\TeamUiS\AppData\Local\Temp\VMBuilds\Circulation\arduino_due_x_dbg\Release\Circulation.cpp.o
main                                              C:\Users\TeamUiS\AppData\Local\Temp\VMBuilds\Circulation\arduino_due_x_dbg\Release/core.a(main.cpp.o)
                                                  C:\Users\TeamUiS\AppData\Local\arduino15\packages\arduino\hardware\sam\1.6.11\variants\arduino_due_x/libsam_sam3x8e_gcc_rel.a(startup_sam3xa.o)
                                                  c:/users/teamuis/appdata/local/arduino15/packages/arduino/tools/arm-none-eabi-gcc/4.8.3-2014q1/bin/../lib/gcc/arm-none-eabi/4.8.3/../../../../arm-none-eabi/lib/armv7-m/crt0.o
malloc                                            c:/users/teamuis/appdata/local/arduino15/packages/arduino/tools/arm-none-eabi-gcc/4.8.3-2014q1/bin/../lib/gcc/arm-none-eabi/4.8.3/../../../../arm-none-eabi/lib/armv7-m\libg.a(lib_a-__atexit.o)
maximum_pressure                                  C:\Users\TeamUiS\AppData\Local\Temp\VMBuilds\Circulation\arduino_due_x_dbg\Release\Circulation.cpp.o
memchr                                            c:/users/teamuis/appdata/local/arduino15/packages/arduino/tools/arm-none-eabi-gcc/4.8.3-2014q1/bin/../lib/gcc/arm-none-eabi/4.8.3/../../../../arm-none-eabi/lib/armv7-m\libg.a(lib_a-memchr-stub.o)
                                                  c:/users/teamuis/appdata/local/arduino15/packages/arduino/tools/arm-none-eabi-gcc/4.8.3-2014q1/bin/../lib/gcc/arm-none-eabi/4.8.3/../../../../arm-none-eabi/lib/armv7-m\libg.a(lib_a-fvwrite.o)
                                                  c:/users/teamuis/appdata/local/arduino15/packages/arduino/tools/arm-none-eabi-gcc/4.8.3-2014q1/bin/../lib/gcc/arm-none-eabi/4.8.3/../../../../arm-none-eabi/lib/armv7-m\libg.a(lib_a-vfiprintf.o)
memcpy                                            c:/users/teamuis/appdata/local/arduino15/packages/arduino/tools/arm-none-eabi-gcc/4.8.3-2014q1/bin/../lib/gcc/arm-none-eabi/4.8.3/../../../../arm-none-eabi/lib/armv7-m\libg.a(lib_a-memcpy.o)
                                                  c:/users/teamuis/appdata/local/arduino15/packages/arduino/tools/arm-none-eabi-gcc/4.8.3-2014q1/bin/../lib/gcc/arm-none-eabi/4.8.3/../../../../arm-none-eabi/lib/armv7-m\libg.a(lib_a-fvwrite.o)
memmove                                           c:/users/teamuis/appdata/local/arduino15/packages/arduino/tools/arm-none-eabi-gcc/4.8.3-2014q1/bin/../lib/gcc/arm-none-eabi/4.8.3/../../../../arm-none-eabi/lib/armv7-m\libg.a(lib_a-memmove.o)
                                                  c:/users/teamuis/appdata/local/arduino15/packages/arduino/tools/arm-none-eabi-gcc/4.8.3-2014q1/bin/../lib/gcc/arm-none-eabi/4.8.3/../../../../arm-none-eabi/lib/armv7-m\libg.a(lib_a-reallocr.o)
                                                  c:/users/teamuis/appdata/local/arduino15/packages/arduino/tools/arm-none-eabi-gcc/4.8.3-2014q1/bin/../lib/gcc/arm-none-eabi/4.8.3/../../../../arm-none-eabi/lib/armv7-m\libg.a(lib_a-fvwrite.o)
memset                                            c:/users/teamuis/appdata/local/arduino15/packages/arduino/tools/arm-none-eabi-gcc/4.8.3-2014q1/bin/../lib/gcc/arm-none-eabi/4.8.3/../../../../arm-none-eabi/lib/armv7-m\libg.a(lib_a-memset.o)
                                                  c:/users/teamuis/appdata/local/arduino15/packages/arduino/tools/arm-none-eabi-gcc/4.8.3-2014q1/bin/../lib/gcc/arm-none-eabi/4.8.3/../../../../arm-none-eabi/lib/armv7-m\libg.a(lib_a-findfp.o)
                                                  C:\Users\TeamUiS\AppData\Local\Temp\VMBuilds\Circulation\arduino_due_x_dbg\Release/core.a(USBCore.cpp.o)
                                                  C:\Users\TeamUiS\AppData\Local\Temp\VMBuilds\Circulation\arduino_due_x_dbg\Release/core.a(RingBuffer.cpp.o)
                                                  c:/users/teamuis/appdata/local/arduino15/packages/arduino/tools/arm-none-eabi-gcc/4.8.3-2014q1/bin/../lib/gcc/arm-none-eabi/4.8.3/../../../../arm-none-eabi/lib/armv7-m/crt0.o
micros                                            C:\Users\TeamUiS\AppData\Local\Temp\VMBuilds\Circulation\arduino_due_x_dbg\Release/core.a(wiring.c.o)
millis                                            C:\Users\TeamUiS\AppData\Local\Temp\VMBuilds\Circulation\arduino_due_x_dbg\Release/core.a(wiring.c.o)
                                                  C:\Users\TeamUiS\AppData\Local\Temp\VMBuilds\Circulation\arduino_due_x_dbg\Release/core.a(CDC.cpp.o)
                                                  C:\Users\TeamUiS\AppData\Local\Temp\VMBuilds\Circulation\arduino_due_x_dbg\Release\Circulation.cpp.o
minimum_pressure                                  C:\Users\TeamUiS\AppData\Local\Temp\VMBuilds\Circulation\arduino_due_x_dbg\Release\Circulation.cpp.o
mode                                              C:\Users\TeamUiS\AppData\Local\Temp\VMBuilds\Circulation\arduino_due_x_dbg\Release\Circulation.cpp.o
ms_init                                           C:\Users\TeamUiS\AppData\Local\Temp\VMBuilds\Circulation\arduino_due_x_dbg\Release\Circulation.cpp.o
ms_start_loop_old                                 C:\Users\TeamUiS\AppData\Local\Temp\VMBuilds\Circulation\arduino_due_x_dbg\Release\Circulation.cpp.o
pendSVHook                                        C:\Users\TeamUiS\AppData\Local\Temp\VMBuilds\Circulation\arduino_due_x_dbg\Release/core.a(hooks.c.o)
                                                  C:\Users\TeamUiS\AppData\Local\Temp\VMBuilds\Circulation\arduino_due_x_dbg\Release/core.a(cortex_handlers.c.o)
pinMode                                           C:\Users\TeamUiS\AppData\Local\Temp\VMBuilds\Circulation\arduino_due_x_dbg\Release/core.a(wiring_digital.c.o)
                                                  C:\Users\TeamUiS\AppData\Local\Temp\VMBuilds\Circulation\arduino_due_x_dbg\Release/core.a(wiring_analog.c.o)
                                                  C:\Users\TeamUiS\AppData\Local\Temp\VMBuilds\Circulation\arduino_due_x_dbg\Release\Circulation.cpp.o
pmc_clr_fast_startup_input                        C:\Users\TeamUiS\AppData\Local\arduino15\packages\arduino\hardware\sam\1.6.11\variants\arduino_due_x/libsam_sam3x8e_gcc_rel.a(pmc.o)
pmc_disable_all_pck                               C:\Users\TeamUiS\AppData\Local\arduino15\packages\arduino\hardware\sam\1.6.11\variants\arduino_due_x/libsam_sam3x8e_gcc_rel.a(pmc.o)
pmc_disable_all_periph_clk                        C:\Users\TeamUiS\AppData\Local\arduino15\packages\arduino\hardware\sam\1.6.11\variants\arduino_due_x/libsam_sam3x8e_gcc_rel.a(pmc.o)
pmc_disable_interrupt                             C:\Users\TeamUiS\AppData\Local\arduino15\packages\arduino\hardware\sam\1.6.11\variants\arduino_due_x/libsam_sam3x8e_gcc_rel.a(pmc.o)
pmc_disable_pck                                   C:\Users\TeamUiS\AppData\Local\arduino15\packages\arduino\hardware\sam\1.6.11\variants\arduino_due_x/libsam_sam3x8e_gcc_rel.a(pmc.o)
pmc_disable_periph_clk                            C:\Users\TeamUiS\AppData\Local\arduino15\packages\arduino\hardware\sam\1.6.11\variants\arduino_due_x/libsam_sam3x8e_gcc_rel.a(pmc.o)
                                                  C:\Users\TeamUiS\AppData\Local\Temp\VMBuilds\Circulation\arduino_due_x_dbg\Release/core.a(UARTClass.cpp.o)
                                                  C:\Users\TeamUiS\AppData\Local\Temp\VMBuilds\Circulation\arduino_due_x_dbg\Release/core.a(wiring_digital.c.o)
pmc_disable_pllack                                C:\Users\TeamUiS\AppData\Local\arduino15\packages\arduino\hardware\sam\1.6.11\variants\arduino_due_x/libsam_sam3x8e_gcc_rel.a(pmc.o)
pmc_disable_udpck                                 C:\Users\TeamUiS\AppData\Local\arduino15\packages\arduino\hardware\sam\1.6.11\variants\arduino_due_x/libsam_sam3x8e_gcc_rel.a(pmc.o)
pmc_disable_upll_clock                            C:\Users\TeamUiS\AppData\Local\arduino15\packages\arduino\hardware\sam\1.6.11\variants\arduino_due_x/libsam_sam3x8e_gcc_rel.a(pmc.o)
pmc_enable_all_pck                                C:\Users\TeamUiS\AppData\Local\arduino15\packages\arduino\hardware\sam\1.6.11\variants\arduino_due_x/libsam_sam3x8e_gcc_rel.a(pmc.o)
pmc_enable_all_periph_clk                         C:\Users\TeamUiS\AppData\Local\arduino15\packages\arduino\hardware\sam\1.6.11\variants\arduino_due_x/libsam_sam3x8e_gcc_rel.a(pmc.o)
pmc_enable_backupmode                             C:\Users\TeamUiS\AppData\Local\arduino15\packages\arduino\hardware\sam\1.6.11\variants\arduino_due_x/libsam_sam3x8e_gcc_rel.a(pmc.o)
pmc_enable_interrupt                              C:\Users\TeamUiS\AppData\Local\arduino15\packages\arduino\hardware\sam\1.6.11\variants\arduino_due_x/libsam_sam3x8e_gcc_rel.a(pmc.o)
pmc_enable_pck                                    C:\Users\TeamUiS\AppData\Local\arduino15\packages\arduino\hardware\sam\1.6.11\variants\arduino_due_x/libsam_sam3x8e_gcc_rel.a(pmc.o)
pmc_enable_periph_clk                             C:\Users\TeamUiS\AppData\Local\arduino15\packages\arduino\hardware\sam\1.6.11\variants\arduino_due_x/libsam_sam3x8e_gcc_rel.a(pmc.o)
                                                  C:\Users\TeamUiS\AppData\Local\arduino15\packages\arduino\hardware\sam\1.6.11\variants\arduino_due_x/libsam_sam3x8e_gcc_rel.a(uotghs_device.o)
                                                  C:\Users\TeamUiS\AppData\Local\Temp\VMBuilds\Circulation\arduino_due_x_dbg\Release/core.a(UARTClass.cpp.o)
                                                  C:\Users\TeamUiS\AppData\Local\Temp\VMBuilds\Circulation\arduino_due_x_dbg\Release/core.a(wiring_digital.c.o)
                                                  C:\Users\TeamUiS\AppData\Local\Temp\VMBuilds\Circulation\arduino_due_x_dbg\Release/core.a(wiring_analog.c.o)
                                                  C:\Users\TeamUiS\AppData\Local\Temp\VMBuilds\Circulation\arduino_due_x_dbg\Release\variant\variant.cpp.o
pmc_enable_pllack                                 C:\Users\TeamUiS\AppData\Local\arduino15\packages\arduino\hardware\sam\1.6.11\variants\arduino_due_x/libsam_sam3x8e_gcc_rel.a(pmc.o)
pmc_enable_sleepmode                              C:\Users\TeamUiS\AppData\Local\arduino15\packages\arduino\hardware\sam\1.6.11\variants\arduino_due_x/libsam_sam3x8e_gcc_rel.a(pmc.o)
pmc_enable_udpck                                  C:\Users\TeamUiS\AppData\Local\arduino15\packages\arduino\hardware\sam\1.6.11\variants\arduino_due_x/libsam_sam3x8e_gcc_rel.a(pmc.o)
                                                  C:\Users\TeamUiS\AppData\Local\arduino15\packages\arduino\hardware\sam\1.6.11\variants\arduino_due_x/libsam_sam3x8e_gcc_rel.a(uotghs_device.o)
pmc_enable_upll_clock                             C:\Users\TeamUiS\AppData\Local\arduino15\packages\arduino\hardware\sam\1.6.11\variants\arduino_due_x/libsam_sam3x8e_gcc_rel.a(pmc.o)
                                                  C:\Users\TeamUiS\AppData\Local\arduino15\packages\arduino\hardware\sam\1.6.11\variants\arduino_due_x/libsam_sam3x8e_gcc_rel.a(uotghs_device.o)
pmc_enable_waitmode                               C:\Users\TeamUiS\AppData\Local\arduino15\packages\arduino\hardware\sam\1.6.11\variants\arduino_due_x/libsam_sam3x8e_gcc_rel.a(pmc.o)
pmc_get_interrupt_mask                            C:\Users\TeamUiS\AppData\Local\arduino15\packages\arduino\hardware\sam\1.6.11\variants\arduino_due_x/libsam_sam3x8e_gcc_rel.a(pmc.o)
pmc_get_status                                    C:\Users\TeamUiS\AppData\Local\arduino15\packages\arduino\hardware\sam\1.6.11\variants\arduino_due_x/libsam_sam3x8e_gcc_rel.a(pmc.o)
pmc_get_writeprotect_status                       C:\Users\TeamUiS\AppData\Local\arduino15\packages\arduino\hardware\sam\1.6.11\variants\arduino_due_x/libsam_sam3x8e_gcc_rel.a(pmc.o)
pmc_is_locked_pllack                              C:\Users\TeamUiS\AppData\Local\arduino15\packages\arduino\hardware\sam\1.6.11\variants\arduino_due_x/libsam_sam3x8e_gcc_rel.a(pmc.o)
pmc_is_locked_upll                                C:\Users\TeamUiS\AppData\Local\arduino15\packages\arduino\hardware\sam\1.6.11\variants\arduino_due_x/libsam_sam3x8e_gcc_rel.a(pmc.o)
pmc_is_pck_enabled                                C:\Users\TeamUiS\AppData\Local\arduino15\packages\arduino\hardware\sam\1.6.11\variants\arduino_due_x/libsam_sam3x8e_gcc_rel.a(pmc.o)
pmc_is_periph_clk_enabled                         C:\Users\TeamUiS\AppData\Local\arduino15\packages\arduino\hardware\sam\1.6.11\variants\arduino_due_x/libsam_sam3x8e_gcc_rel.a(pmc.o)
pmc_mck_set_prescaler                             C:\Users\TeamUiS\AppData\Local\arduino15\packages\arduino\hardware\sam\1.6.11\variants\arduino_due_x/libsam_sam3x8e_gcc_rel.a(pmc.o)
pmc_mck_set_source                                C:\Users\TeamUiS\AppData\Local\arduino15\packages\arduino\hardware\sam\1.6.11\variants\arduino_due_x/libsam_sam3x8e_gcc_rel.a(pmc.o)
pmc_osc_disable_fastrc                            C:\Users\TeamUiS\AppData\Local\arduino15\packages\arduino\hardware\sam\1.6.11\variants\arduino_due_x/libsam_sam3x8e_gcc_rel.a(pmc.o)
pmc_osc_disable_xtal                              C:\Users\TeamUiS\AppData\Local\arduino15\packages\arduino\hardware\sam\1.6.11\variants\arduino_due_x/libsam_sam3x8e_gcc_rel.a(pmc.o)
pmc_osc_enable_fastrc                             C:\Users\TeamUiS\AppData\Local\arduino15\packages\arduino\hardware\sam\1.6.11\variants\arduino_due_x/libsam_sam3x8e_gcc_rel.a(pmc.o)
pmc_osc_is_ready_32kxtal                          C:\Users\TeamUiS\AppData\Local\arduino15\packages\arduino\hardware\sam\1.6.11\variants\arduino_due_x/libsam_sam3x8e_gcc_rel.a(pmc.o)
pmc_osc_is_ready_mainck                           C:\Users\TeamUiS\AppData\Local\arduino15\packages\arduino\hardware\sam\1.6.11\variants\arduino_due_x/libsam_sam3x8e_gcc_rel.a(pmc.o)
pmc_pck_set_prescaler                             C:\Users\TeamUiS\AppData\Local\arduino15\packages\arduino\hardware\sam\1.6.11\variants\arduino_due_x/libsam_sam3x8e_gcc_rel.a(pmc.o)
pmc_pck_set_source                                C:\Users\TeamUiS\AppData\Local\arduino15\packages\arduino\hardware\sam\1.6.11\variants\arduino_due_x/libsam_sam3x8e_gcc_rel.a(pmc.o)
pmc_set_fast_startup_input                        C:\Users\TeamUiS\AppData\Local\arduino15\packages\arduino\hardware\sam\1.6.11\variants\arduino_due_x/libsam_sam3x8e_gcc_rel.a(pmc.o)
pmc_set_writeprotect                              C:\Users\TeamUiS\AppData\Local\arduino15\packages\arduino\hardware\sam\1.6.11\variants\arduino_due_x/libsam_sam3x8e_gcc_rel.a(pmc.o)
pmc_switch_mainck_to_fastrc                       C:\Users\TeamUiS\AppData\Local\arduino15\packages\arduino\hardware\sam\1.6.11\variants\arduino_due_x/libsam_sam3x8e_gcc_rel.a(pmc.o)
pmc_switch_mainck_to_xtal                         C:\Users\TeamUiS\AppData\Local\arduino15\packages\arduino\hardware\sam\1.6.11\variants\arduino_due_x/libsam_sam3x8e_gcc_rel.a(pmc.o)
pmc_switch_mck_to_mainck                          C:\Users\TeamUiS\AppData\Local\arduino15\packages\arduino\hardware\sam\1.6.11\variants\arduino_due_x/libsam_sam3x8e_gcc_rel.a(pmc.o)
pmc_switch_mck_to_pllack                          C:\Users\TeamUiS\AppData\Local\arduino15\packages\arduino\hardware\sam\1.6.11\variants\arduino_due_x/libsam_sam3x8e_gcc_rel.a(pmc.o)
pmc_switch_mck_to_sclk                            C:\Users\TeamUiS\AppData\Local\arduino15\packages\arduino\hardware\sam\1.6.11\variants\arduino_due_x/libsam_sam3x8e_gcc_rel.a(pmc.o)
pmc_switch_mck_to_upllck                          C:\Users\TeamUiS\AppData\Local\arduino15\packages\arduino\hardware\sam\1.6.11\variants\arduino_due_x/libsam_sam3x8e_gcc_rel.a(pmc.o)
pmc_switch_pck_to_mainck                          C:\Users\TeamUiS\AppData\Local\arduino15\packages\arduino\hardware\sam\1.6.11\variants\arduino_due_x/libsam_sam3x8e_gcc_rel.a(pmc.o)
pmc_switch_pck_to_pllack                          C:\Users\TeamUiS\AppData\Local\arduino15\packages\arduino\hardware\sam\1.6.11\variants\arduino_due_x/libsam_sam3x8e_gcc_rel.a(pmc.o)
pmc_switch_pck_to_sclk                            C:\Users\TeamUiS\AppData\Local\arduino15\packages\arduino\hardware\sam\1.6.11\variants\arduino_due_x/libsam_sam3x8e_gcc_rel.a(pmc.o)
pmc_switch_pck_to_upllck                          C:\Users\TeamUiS\AppData\Local\arduino15\packages\arduino\hardware\sam\1.6.11\variants\arduino_due_x/libsam_sam3x8e_gcc_rel.a(pmc.o)
pmc_switch_sclk_to_32kxtal                        C:\Users\TeamUiS\AppData\Local\arduino15\packages\arduino\hardware\sam\1.6.11\variants\arduino_due_x/libsam_sam3x8e_gcc_rel.a(pmc.o)
pmc_switch_udpck_to_pllack                        C:\Users\TeamUiS\AppData\Local\arduino15\packages\arduino\hardware\sam\1.6.11\variants\arduino_due_x/libsam_sam3x8e_gcc_rel.a(pmc.o)
pmc_switch_udpck_to_upllck                        C:\Users\TeamUiS\AppData\Local\arduino15\packages\arduino\hardware\sam\1.6.11\variants\arduino_due_x/libsam_sam3x8e_gcc_rel.a(pmc.o)
                                                  C:\Users\TeamUiS\AppData\Local\arduino15\packages\arduino\hardware\sam\1.6.11\variants\arduino_due_x/libsam_sam3x8e_gcc_rel.a(uotghs_device.o)
pressure                                          C:\Users\TeamUiS\AppData\Local\Temp\VMBuilds\Circulation\arduino_due_x_dbg\Release\Circulation.cpp.o
pressureSensor                                    C:\Users\TeamUiS\AppData\Local\Temp\VMBuilds\Circulation\arduino_due_x_dbg\Release\Circulation.cpp.o
previousTime                                      C:\Users\TeamUiS\AppData\Local\Temp\VMBuilds\Circulation\arduino_due_x_dbg\Release\Circulation.cpp.o
pump1Active                                       C:\Users\TeamUiS\AppData\Local\Temp\VMBuilds\Circulation\arduino_due_x_dbg\Release\Circulation.cpp.o
pumpSwitchTimer                                   C:\Users\TeamUiS\AppData\Local\Temp\VMBuilds\Circulation\arduino_due_x_dbg\Release\Circulation.cpp.o
pumpTimer                                         C:\Users\TeamUiS\AppData\Local\Temp\VMBuilds\Circulation\arduino_due_x_dbg\Release\Circulation.cpp.o
pump_rampUp_time                                  C:\Users\TeamUiS\AppData\Local\Temp\VMBuilds\Circulation\arduino_due_x_dbg\Release\Circulation.cpp.o
pump_start_time                                   C:\Users\TeamUiS\AppData\Local\Temp\VMBuilds\Circulation\arduino_due_x_dbg\Release\Circulation.cpp.o
raise                                             c:/users/teamuis/appdata/local/arduino15/packages/arduino/tools/arm-none-eabi-gcc/4.8.3-2014q1/bin/../lib/gcc/arm-none-eabi/4.8.3/../../../../arm-none-eabi/lib/armv7-m\libg.a(lib_a-signal.o)
                                                  c:/users/teamuis/appdata/local/arduino15/packages/arduino/tools/arm-none-eabi-gcc/4.8.3-2014q1/bin/../lib/gcc/arm-none-eabi/4.8.3/../../../../arm-none-eabi/lib/armv7-m\libg.a(lib_a-abort.o)
reading                                           C:\Users\TeamUiS\AppData\Local\Temp\VMBuilds\Circulation\arduino_due_x_dbg\Release\Circulation.cpp.o
result                                            C:\Users\TeamUiS\AppData\Local\Temp\VMBuilds\Circulation\arduino_due_x_dbg\Release\Circulation.cpp.o
rx_buffer1                                        C:\Users\TeamUiS\AppData\Local\Temp\VMBuilds\Circulation\arduino_due_x_dbg\Release\variant\variant.cpp.o
rx_buffer2                                        C:\Users\TeamUiS\AppData\Local\Temp\VMBuilds\Circulation\arduino_due_x_dbg\Release\variant\variant.cpp.o
rx_buffer3                                        C:\Users\TeamUiS\AppData\Local\Temp\VMBuilds\Circulation\arduino_due_x_dbg\Release\variant\variant.cpp.o
rx_buffer4                                        C:\Users\TeamUiS\AppData\Local\Temp\VMBuilds\Circulation\arduino_due_x_dbg\Release\variant\variant.cpp.o
serialEvent()                                     C:\Users\TeamUiS\AppData\Local\Temp\VMBuilds\Circulation\arduino_due_x_dbg\Release\variant\variant.cpp.o
serialEvent1()                                    C:\Users\TeamUiS\AppData\Local\Temp\VMBuilds\Circulation\arduino_due_x_dbg\Release\variant\variant.cpp.o
serialEvent2()                                    C:\Users\TeamUiS\AppData\Local\Temp\VMBuilds\Circulation\arduino_due_x_dbg\Release\variant\variant.cpp.o
serialEvent3()                                    C:\Users\TeamUiS\AppData\Local\Temp\VMBuilds\Circulation\arduino_due_x_dbg\Release\variant\variant.cpp.o
serialEventRun()                                  C:\Users\TeamUiS\AppData\Local\Temp\VMBuilds\Circulation\arduino_due_x_dbg\Release\variant\variant.cpp.o
                                                  C:\Users\TeamUiS\AppData\Local\Temp\VMBuilds\Circulation\arduino_due_x_dbg\Release/core.a(main.cpp.o)
setlocale                                         c:/users/teamuis/appdata/local/arduino15/packages/arduino/tools/arm-none-eabi-gcc/4.8.3-2014q1/bin/../lib/gcc/arm-none-eabi/4.8.3/../../../../arm-none-eabi/lib/armv7-m\libg.a(lib_a-locale.o)
setup                                             C:\Users\TeamUiS\AppData\Local\Temp\VMBuilds\Circulation\arduino_due_x_dbg\Release\Circulation.cpp.o
                                                  C:\Users\TeamUiS\AppData\Local\Temp\VMBuilds\Circulation\arduino_due_x_dbg\Release/core.a(main.cpp.o)
signal                                            c:/users/teamuis/appdata/local/arduino15/packages/arduino/tools/arm-none-eabi-gcc/4.8.3-2014q1/bin/../lib/gcc/arm-none-eabi/4.8.3/../../../../arm-none-eabi/lib/armv7-m\libg.a(lib_a-signal.o)
software_init_hook                                c:/users/teamuis/appdata/local/arduino15/packages/arduino/tools/arm-none-eabi-gcc/4.8.3-2014q1/bin/../lib/gcc/arm-none-eabi/4.8.3/../../../../arm-none-eabi/lib/armv7-m/crt0.o
strcmp                                            c:/users/teamuis/appdata/local/arduino15/packages/arduino/tools/arm-none-eabi-gcc/4.8.3-2014q1/bin/../lib/gcc/arm-none-eabi/4.8.3/../../../../arm-none-eabi/lib/armv7-m\libg.a(lib_a-strcmp.o)
                                                  c:/users/teamuis/appdata/local/arduino15/packages/arduino/tools/arm-none-eabi-gcc/4.8.3-2014q1/bin/../lib/gcc/arm-none-eabi/4.8.3/../../../../arm-none-eabi/lib/armv7-m\libg.a(lib_a-locale.o)
strlen                                            c:/users/teamuis/appdata/local/arduino15/packages/arduino/tools/arm-none-eabi-gcc/4.8.3-2014q1/bin/../lib/gcc/arm-none-eabi/4.8.3/../../../../arm-none-eabi/lib/armv7-m\libg.a(lib_a-strlen.o)
                                                  c:/users/teamuis/appdata/local/arduino15/packages/arduino/tools/arm-none-eabi-gcc/4.8.3-2014q1/bin/../lib/gcc/arm-none-eabi/4.8.3/../../../../arm-none-eabi/lib/armv7-m\libg.a(lib_a-vfiprintf.o)
                                                  C:\Users\TeamUiS\AppData\Local\Temp\VMBuilds\Circulation\arduino_due_x_dbg\Release/core.a(USBCore.cpp.o)
                                                  C:\Users\TeamUiS\AppData\Local\Temp\VMBuilds\Circulation\arduino_due_x_dbg\Release/core.a(Print.cpp.o)
svcHook                                           C:\Users\TeamUiS\AppData\Local\Temp\VMBuilds\Circulation\arduino_due_x_dbg\Release/core.a(hooks.c.o)
                                                  C:\Users\TeamUiS\AppData\Local\Temp\VMBuilds\Circulation\arduino_due_x_dbg\Release/core.a(cortex_handlers.c.o)
switchTime                                        C:\Users\TeamUiS\AppData\Local\Temp\VMBuilds\Circulation\arduino_due_x_dbg\Release\Circulation.cpp.o
sysTickHook                                       C:\Users\TeamUiS\AppData\Local\Temp\VMBuilds\Circulation\arduino_due_x_dbg\Release/core.a(hooks.c.o)
                                                  C:\Users\TeamUiS\AppData\Local\Temp\VMBuilds\Circulation\arduino_due_x_dbg\Release/core.a(cortex_handlers.c.o)
system_init_flash                                 C:\Users\TeamUiS\AppData\Local\arduino15\packages\arduino\hardware\sam\1.6.11\variants\arduino_due_x/libsam_sam3x8e_gcc_rel.a(system_sam3xa.o)
tickReset                                         C:\Users\TeamUiS\AppData\Local\Temp\VMBuilds\Circulation\arduino_due_x_dbg\Release/core.a(Reset.cpp.o)
                                                  C:\Users\TeamUiS\AppData\Local\Temp\VMBuilds\Circulation\arduino_due_x_dbg\Release/core.a(cortex_handlers.c.o)
time_since_pump_start                             C:\Users\TeamUiS\AppData\Local\Temp\VMBuilds\Circulation\arduino_due_x_dbg\Release\Circulation.cpp.o
turnOnPump                                        C:\Users\TeamUiS\AppData\Local\Temp\VMBuilds\Circulation\arduino_due_x_dbg\Release\Circulation.cpp.o
tx_buffer1                                        C:\Users\TeamUiS\AppData\Local\Temp\VMBuilds\Circulation\arduino_due_x_dbg\Release\variant\variant.cpp.o
tx_buffer2                                        C:\Users\TeamUiS\AppData\Local\Temp\VMBuilds\Circulation\arduino_due_x_dbg\Release\variant\variant.cpp.o
tx_buffer3                                        C:\Users\TeamUiS\AppData\Local\Temp\VMBuilds\Circulation\arduino_due_x_dbg\Release\variant\variant.cpp.o
tx_buffer4                                        C:\Users\TeamUiS\AppData\Local\Temp\VMBuilds\Circulation\arduino_due_x_dbg\Release\variant\variant.cpp.o
vfiprintf                                         c:/users/teamuis/appdata/local/arduino15/packages/arduino/tools/arm-none-eabi-gcc/4.8.3-2014q1/bin/../lib/gcc/arm-none-eabi/4.8.3/../../../../arm-none-eabi/lib/armv7-m\libg.a(lib_a-vfiprintf.o)
vtable for Print                                  C:\Users\TeamUiS\AppData\Local\Temp\VMBuilds\Circulation\arduino_due_x_dbg\Release/core.a(Print.cpp.o)
vtable for Serial_                                C:\Users\TeamUiS\AppData\Local\Temp\VMBuilds\Circulation\arduino_due_x_dbg\Release/core.a(CDC.cpp.o)
vtable for Stream                                 C:\Users\TeamUiS\AppData\Local\Temp\VMBuilds\Circulation\arduino_due_x_dbg\Release/core.a(UARTClass.cpp.o)
vtable for UARTClass                              C:\Users\TeamUiS\AppData\Local\Temp\VMBuilds\Circulation\arduino_due_x_dbg\Release/core.a(UARTClass.cpp.o)
vtable for USARTClass                             C:\Users\TeamUiS\AppData\Local\Temp\VMBuilds\Circulation\arduino_due_x_dbg\Release/core.a(USARTClass.cpp.o)
watchdogDisable()                                 C:\Users\TeamUiS\AppData\Local\Temp\VMBuilds\Circulation\arduino_due_x_dbg\Release/core.a(watchdog.cpp.o)
watchdogEnable(unsigned long)                     C:\Users\TeamUiS\AppData\Local\Temp\VMBuilds\Circulation\arduino_due_x_dbg\Release/core.a(watchdog.cpp.o)
watchdogReset()                                   C:\Users\TeamUiS\AppData\Local\Temp\VMBuilds\Circulation\arduino_due_x_dbg\Release/core.a(watchdog.cpp.o)
watchdogSetup()                                   C:\Users\TeamUiS\AppData\Local\Temp\VMBuilds\Circulation\arduino_due_x_dbg\Release/core.a(watchdog.cpp.o)
                                                  C:\Users\TeamUiS\AppData\Local\Temp\VMBuilds\Circulation\arduino_due_x_dbg\Release/core.a(main.cpp.o)
wcrtomb                                           c:/users/teamuis/appdata/local/arduino15/packages/arduino/tools/arm-none-eabi-gcc/4.8.3-2014q1/bin/../lib/gcc/arm-none-eabi/4.8.3/../../../../arm-none-eabi/lib/armv7-m\libg.a(lib_a-wcrtomb.o)
yield                                             C:\Users\TeamUiS\AppData\Local\Temp\VMBuilds\Circulation\arduino_due_x_dbg\Release/core.a(hooks.c.o)
                                                  C:\Users\TeamUiS\AppData\Local\Temp\VMBuilds\Circulation\arduino_due_x_dbg\Release/core.a(wiring.c.o)
